Archive member included because of file (symbol)

/Applications/Arduino.app/Contents/Resources/Java/hardware/arduino/sam/variants/arduino_due_x/libsam_sam3x8e_gcc_rel.a(pio.o)
                              Builds/variant.o (PIO_Configure)
/Applications/Arduino.app/Contents/Resources/Java/hardware/arduino/sam/variants/arduino_due_x/libsam_sam3x8e_gcc_rel.a(pmc.o)
                              Builds/variant.o (pmc_enable_periph_clk)
/Applications/Arduino.app/Contents/Resources/Java/hardware/arduino/sam/variants/arduino_due_x/libsam_sam3x8e_gcc_rel.a(wdt.o)
                              Builds/variant.o (WDT_Disable)
/Applications/Arduino.app/Contents/Resources/Java/hardware/arduino/sam/variants/arduino_due_x/libsam_sam3x8e_gcc_rel.a(system_sam3xa.o)
                              Builds/variant.o (SystemInit)
/Applications/Arduino.app/Contents/Resources/Java/hardware/arduino/sam/variants/arduino_due_x/libsam_sam3x8e_gcc_rel.a(startup_sam3xa.o)
                              (Reset_Handler)
/Applications/Arduino.app/Contents/Resources/Java/hardware/arduino/sam/variants/arduino_due_x/libsam_sam3x8e_gcc_rel.a(adc.o)
                              Builds/variant.o (adc_init)
/Applications/Arduino.app/Contents/Resources/Java/hardware/arduino/sam/variants/arduino_due_x/libsam_sam3x8e_gcc_rel.a(uotghs.o)
                              /Applications/Arduino.app/Contents/Resources/Java/hardware/arduino/sam/variants/arduino_due_x/libsam_sam3x8e_gcc_rel.a(startup_sam3xa.o) (UOTGHS_Handler)
Builds/embeddedcomputing.a(WInterrupts.o)
                              /Applications/Arduino.app/Contents/Resources/Java/hardware/arduino/sam/variants/arduino_due_x/libsam_sam3x8e_gcc_rel.a(startup_sam3xa.o) (PIOA_Handler)
Builds/embeddedcomputing.a(cortex_handlers.o)
                              /Applications/Arduino.app/Contents/Resources/Java/hardware/arduino/sam/variants/arduino_due_x/libsam_sam3x8e_gcc_rel.a(startup_sam3xa.o) (SysTick_Handler)
Builds/embeddedcomputing.a(hooks.o)
                              Builds/embeddedcomputing.a(cortex_handlers.o) (sysTickHook)
Builds/embeddedcomputing.a(wiring.o)
                              Builds/main.o (delay)
Builds/embeddedcomputing.a(wiring_analog.o)
                              Builds/variant.o (analogOutputInit)
Builds/embeddedcomputing.a(wiring_digital.o)
                              Builds/variant.o (digitalWrite)
Builds/embeddedcomputing.a(Reset.o)
                              Builds/embeddedcomputing.a(cortex_handlers.o) (tickReset)
Builds/embeddedcomputing.a(RingBuffer.o)
                              Builds/variant.o (_ZN10RingBufferC1Ev)
Builds/embeddedcomputing.a(UARTClass.o)
                              Builds/variant.o (_ZN9UARTClassC1EP4Uart4IRQnmP10RingBuffer)
Builds/embeddedcomputing.a(USARTClass.o)
                              Builds/variant.o (_ZN10USARTClassC1EP5Usart4IRQnmP10RingBuffer)
Builds/embeddedcomputing.a(cxxabi-compat.o)
                              Builds/embeddedcomputing.a(UARTClass.o) (__cxa_pure_virtual)
Builds/embeddedcomputing.a(USBCore.o)
                              Builds/main.o (_ZN10USBDevice_6attachEv)
Builds/embeddedcomputing.a(Print.o)
                              Builds/embeddedcomputing.a(UARTClass.o) (_ZN5Print5writeEPKhj)
Builds/embeddedcomputing.a(CDC.o)
                              Builds/embeddedcomputing.a(USBCore.o) (_ZN7Serial_6acceptEv)
Builds/embeddedcomputing.a(HID.o)
                              Builds/embeddedcomputing.a(USBCore.o) (_Z9HID_SetupR5Setup)
/Applications/Arduino.app/Contents/Resources/Java/hardware/arduino/sam/variants/arduino_due_x/libsam_sam3x8e_gcc_rel.a(pwmc.o)
                              Builds/embeddedcomputing.a(wiring_analog.o) (PWMC_ConfigureChannel)
/Applications/Arduino.app/Contents/Resources/Java/hardware/arduino/sam/variants/arduino_due_x/libsam_sam3x8e_gcc_rel.a(tc.o)
                              Builds/embeddedcomputing.a(wiring_analog.o) (TC_Configure)
/Applications/Arduino.app/Contents/Resources/Java/hardware/arduino/sam/variants/arduino_due_x/libsam_sam3x8e_gcc_rel.a(timetick.o)
                              Builds/embeddedcomputing.a(cortex_handlers.o) (TimeTick_Increment)
/Applications/Arduino.app/Contents/Resources/Java/hardware/arduino/sam/variants/arduino_due_x/libsam_sam3x8e_gcc_rel.a(interrupt_sam_nvic.o)
                              Builds/embeddedcomputing.a(USBCore.o) (g_interrupt_enabled)
/Applications/Arduino.app/Contents/Resources/Java/hardware/arduino/sam/variants/arduino_due_x/libsam_sam3x8e_gcc_rel.a(uotghs_device.o)
                              Builds/embeddedcomputing.a(USBCore.o) (UDD_SetStack)
/Applications/Arduino.app/Contents/Resources/Java/hardware/arduino/sam/variants/arduino_due_x/libsam_sam3x8e_gcc_rel.a(dacc.o)
                              Builds/embeddedcomputing.a(wiring_analog.o) (dacc_reset)
/Applications/Arduino.app/Contents/Resources/Java/hardware/tools/g++_arm_none_eabi/bin/../lib/gcc/arm-none-eabi/4.4.1/../../../../arm-none-eabi/lib/thumb2/libm.a(lib_a-s_isinfd.o)
                              Builds/embeddedcomputing.a(Print.o) (__isinfd)
/Applications/Arduino.app/Contents/Resources/Java/hardware/tools/g++_arm_none_eabi/bin/../lib/gcc/arm-none-eabi/4.4.1/../../../../arm-none-eabi/lib/thumb2/libm.a(lib_a-s_isnand.o)
                              Builds/embeddedcomputing.a(Print.o) (__isnand)
/Applications/Arduino.app/Contents/Resources/Java/hardware/tools/g++_arm_none_eabi/bin/../lib/gcc/arm-none-eabi/4.4.1/thumb2/libgcc.a(_arm_addsubdf3.o)
                              Builds/embeddedcomputing.a(Print.o) (__aeabi_dsub)
/Applications/Arduino.app/Contents/Resources/Java/hardware/tools/g++_arm_none_eabi/bin/../lib/gcc/arm-none-eabi/4.4.1/thumb2/libgcc.a(_arm_muldivdf3.o)
                              Builds/embeddedcomputing.a(Print.o) (__aeabi_dmul)
/Applications/Arduino.app/Contents/Resources/Java/hardware/tools/g++_arm_none_eabi/bin/../lib/gcc/arm-none-eabi/4.4.1/thumb2/libgcc.a(_arm_cmpdf2.o)
                              Builds/embeddedcomputing.a(Print.o) (__aeabi_dcmplt)
/Applications/Arduino.app/Contents/Resources/Java/hardware/tools/g++_arm_none_eabi/bin/../lib/gcc/arm-none-eabi/4.4.1/thumb2/libgcc.a(_arm_fixdfsi.o)
                              Builds/embeddedcomputing.a(Print.o) (__aeabi_d2iz)
/Applications/Arduino.app/Contents/Resources/Java/hardware/tools/g++_arm_none_eabi/bin/../lib/gcc/arm-none-eabi/4.4.1/thumb2/libgcc.a(_arm_fixunsdfsi.o)
                              Builds/embeddedcomputing.a(Print.o) (__aeabi_d2uiz)
/Applications/Arduino.app/Contents/Resources/Java/hardware/tools/g++_arm_none_eabi/bin/../lib/gcc/arm-none-eabi/4.4.1/../../../../arm-none-eabi/lib/thumb2/libc.a(lib_a-assert.o)
                              /Applications/Arduino.app/Contents/Resources/Java/hardware/arduino/sam/variants/arduino_due_x/libsam_sam3x8e_gcc_rel.a(pwmc.o) (__assert_func)
/Applications/Arduino.app/Contents/Resources/Java/hardware/tools/g++_arm_none_eabi/bin/../lib/gcc/arm-none-eabi/4.4.1/../../../../arm-none-eabi/lib/thumb2/libc.a(lib_a-fiprintf.o)
                              /Applications/Arduino.app/Contents/Resources/Java/hardware/tools/g++_arm_none_eabi/bin/../lib/gcc/arm-none-eabi/4.4.1/../../../../arm-none-eabi/lib/thumb2/libc.a(lib_a-assert.o) (fiprintf)
/Applications/Arduino.app/Contents/Resources/Java/hardware/tools/g++_arm_none_eabi/bin/../lib/gcc/arm-none-eabi/4.4.1/../../../../arm-none-eabi/lib/thumb2/libc.a(lib_a-impure.o)
                              /Applications/Arduino.app/Contents/Resources/Java/hardware/tools/g++_arm_none_eabi/bin/../lib/gcc/arm-none-eabi/4.4.1/../../../../arm-none-eabi/lib/thumb2/libc.a(lib_a-assert.o) (_impure_ptr)
/Applications/Arduino.app/Contents/Resources/Java/hardware/tools/g++_arm_none_eabi/bin/../lib/gcc/arm-none-eabi/4.4.1/../../../../arm-none-eabi/lib/thumb2/libc.a(lib_a-init.o)
                              Builds/variant.o (__libc_init_array)
/Applications/Arduino.app/Contents/Resources/Java/hardware/tools/g++_arm_none_eabi/bin/../lib/gcc/arm-none-eabi/4.4.1/../../../../arm-none-eabi/lib/thumb2/libc.a(lib_a-iprintf.o)
                              Builds/syscalls_sam3.o (iprintf)
/Applications/Arduino.app/Contents/Resources/Java/hardware/tools/g++_arm_none_eabi/bin/../lib/gcc/arm-none-eabi/4.4.1/../../../../arm-none-eabi/lib/thumb2/libc.a(lib_a-memset.o)
                              Builds/embeddedcomputing.a(RingBuffer.o) (memset)
/Applications/Arduino.app/Contents/Resources/Java/hardware/tools/g++_arm_none_eabi/bin/../lib/gcc/arm-none-eabi/4.4.1/../../../../arm-none-eabi/lib/thumb2/libc.a(lib_a-strlen.o)
                              Builds/embeddedcomputing.a(Print.o) (strlen)
/Applications/Arduino.app/Contents/Resources/Java/hardware/tools/g++_arm_none_eabi/bin/../lib/gcc/arm-none-eabi/4.4.1/../../../../arm-none-eabi/lib/thumb2/libc.a(lib_a-vfiprintf.o)
                              /Applications/Arduino.app/Contents/Resources/Java/hardware/tools/g++_arm_none_eabi/bin/../lib/gcc/arm-none-eabi/4.4.1/../../../../arm-none-eabi/lib/thumb2/libc.a(lib_a-fiprintf.o) (_vfiprintf_r)
/Applications/Arduino.app/Contents/Resources/Java/hardware/tools/g++_arm_none_eabi/bin/../lib/gcc/arm-none-eabi/4.4.1/../../../../arm-none-eabi/lib/thumb2/libc.a(lib_a-wsetup.o)
                              /Applications/Arduino.app/Contents/Resources/Java/hardware/tools/g++_arm_none_eabi/bin/../lib/gcc/arm-none-eabi/4.4.1/../../../../arm-none-eabi/lib/thumb2/libc.a(lib_a-vfiprintf.o) (__swsetup_r)
/Applications/Arduino.app/Contents/Resources/Java/hardware/tools/g++_arm_none_eabi/bin/../lib/gcc/arm-none-eabi/4.4.1/../../../../arm-none-eabi/lib/thumb2/libc.a(lib_a-abort.o)
                              /Applications/Arduino.app/Contents/Resources/Java/hardware/tools/g++_arm_none_eabi/bin/../lib/gcc/arm-none-eabi/4.4.1/../../../../arm-none-eabi/lib/thumb2/libc.a(lib_a-assert.o) (abort)
/Applications/Arduino.app/Contents/Resources/Java/hardware/tools/g++_arm_none_eabi/bin/../lib/gcc/arm-none-eabi/4.4.1/../../../../arm-none-eabi/lib/thumb2/libc.a(lib_a-fflush.o)
                              /Applications/Arduino.app/Contents/Resources/Java/hardware/tools/g++_arm_none_eabi/bin/../lib/gcc/arm-none-eabi/4.4.1/../../../../arm-none-eabi/lib/thumb2/libc.a(lib_a-vfiprintf.o) (_fflush_r)
/Applications/Arduino.app/Contents/Resources/Java/hardware/tools/g++_arm_none_eabi/bin/../lib/gcc/arm-none-eabi/4.4.1/../../../../arm-none-eabi/lib/thumb2/libc.a(lib_a-findfp.o)
                              /Applications/Arduino.app/Contents/Resources/Java/hardware/tools/g++_arm_none_eabi/bin/../lib/gcc/arm-none-eabi/4.4.1/../../../../arm-none-eabi/lib/thumb2/libc.a(lib_a-iprintf.o) (__sinit)
/Applications/Arduino.app/Contents/Resources/Java/hardware/tools/g++_arm_none_eabi/bin/../lib/gcc/arm-none-eabi/4.4.1/../../../../arm-none-eabi/lib/thumb2/libc.a(lib_a-freer.o)
                              /Applications/Arduino.app/Contents/Resources/Java/hardware/tools/g++_arm_none_eabi/bin/../lib/gcc/arm-none-eabi/4.4.1/../../../../arm-none-eabi/lib/thumb2/libc.a(lib_a-wsetup.o) (_free_r)
/Applications/Arduino.app/Contents/Resources/Java/hardware/tools/g++_arm_none_eabi/bin/../lib/gcc/arm-none-eabi/4.4.1/../../../../arm-none-eabi/lib/thumb2/libc.a(lib_a-fvwrite.o)
                              /Applications/Arduino.app/Contents/Resources/Java/hardware/tools/g++_arm_none_eabi/bin/../lib/gcc/arm-none-eabi/4.4.1/../../../../arm-none-eabi/lib/thumb2/libc.a(lib_a-vfiprintf.o) (__sfvwrite_r)
/Applications/Arduino.app/Contents/Resources/Java/hardware/tools/g++_arm_none_eabi/bin/../lib/gcc/arm-none-eabi/4.4.1/../../../../arm-none-eabi/lib/thumb2/libc.a(lib_a-fwalk.o)
                              /Applications/Arduino.app/Contents/Resources/Java/hardware/tools/g++_arm_none_eabi/bin/../lib/gcc/arm-none-eabi/4.4.1/../../../../arm-none-eabi/lib/thumb2/libc.a(lib_a-fflush.o) (_fwalk_reent)
/Applications/Arduino.app/Contents/Resources/Java/hardware/tools/g++_arm_none_eabi/bin/../lib/gcc/arm-none-eabi/4.4.1/../../../../arm-none-eabi/lib/thumb2/libc.a(lib_a-makebuf.o)
                              /Applications/Arduino.app/Contents/Resources/Java/hardware/tools/g++_arm_none_eabi/bin/../lib/gcc/arm-none-eabi/4.4.1/../../../../arm-none-eabi/lib/thumb2/libc.a(lib_a-wsetup.o) (__smakebuf_r)
/Applications/Arduino.app/Contents/Resources/Java/hardware/tools/g++_arm_none_eabi/bin/../lib/gcc/arm-none-eabi/4.4.1/../../../../arm-none-eabi/lib/thumb2/libc.a(lib_a-mallocr.o)
                              /Applications/Arduino.app/Contents/Resources/Java/hardware/tools/g++_arm_none_eabi/bin/../lib/gcc/arm-none-eabi/4.4.1/../../../../arm-none-eabi/lib/thumb2/libc.a(lib_a-findfp.o) (_malloc_r)
/Applications/Arduino.app/Contents/Resources/Java/hardware/tools/g++_arm_none_eabi/bin/../lib/gcc/arm-none-eabi/4.4.1/../../../../arm-none-eabi/lib/thumb2/libc.a(lib_a-memchr.o)
                              /Applications/Arduino.app/Contents/Resources/Java/hardware/tools/g++_arm_none_eabi/bin/../lib/gcc/arm-none-eabi/4.4.1/../../../../arm-none-eabi/lib/thumb2/libc.a(lib_a-vfiprintf.o) (memchr)
/Applications/Arduino.app/Contents/Resources/Java/hardware/tools/g++_arm_none_eabi/bin/../lib/gcc/arm-none-eabi/4.4.1/../../../../arm-none-eabi/lib/thumb2/libc.a(lib_a-memcpy.o)
                              /Applications/Arduino.app/Contents/Resources/Java/hardware/tools/g++_arm_none_eabi/bin/../lib/gcc/arm-none-eabi/4.4.1/../../../../arm-none-eabi/lib/thumb2/libc.a(lib_a-fvwrite.o) (memcpy)
/Applications/Arduino.app/Contents/Resources/Java/hardware/tools/g++_arm_none_eabi/bin/../lib/gcc/arm-none-eabi/4.4.1/../../../../arm-none-eabi/lib/thumb2/libc.a(lib_a-memmove.o)
                              /Applications/Arduino.app/Contents/Resources/Java/hardware/tools/g++_arm_none_eabi/bin/../lib/gcc/arm-none-eabi/4.4.1/../../../../arm-none-eabi/lib/thumb2/libc.a(lib_a-fvwrite.o) (memmove)
/Applications/Arduino.app/Contents/Resources/Java/hardware/tools/g++_arm_none_eabi/bin/../lib/gcc/arm-none-eabi/4.4.1/../../../../arm-none-eabi/lib/thumb2/libc.a(lib_a-mlock.o)
                              /Applications/Arduino.app/Contents/Resources/Java/hardware/tools/g++_arm_none_eabi/bin/../lib/gcc/arm-none-eabi/4.4.1/../../../../arm-none-eabi/lib/thumb2/libc.a(lib_a-freer.o) (__malloc_lock)
/Applications/Arduino.app/Contents/Resources/Java/hardware/tools/g++_arm_none_eabi/bin/../lib/gcc/arm-none-eabi/4.4.1/../../../../arm-none-eabi/lib/thumb2/libc.a(lib_a-reallocr.o)
                              /Applications/Arduino.app/Contents/Resources/Java/hardware/tools/g++_arm_none_eabi/bin/../lib/gcc/arm-none-eabi/4.4.1/../../../../arm-none-eabi/lib/thumb2/libc.a(lib_a-fvwrite.o) (_realloc_r)
/Applications/Arduino.app/Contents/Resources/Java/hardware/tools/g++_arm_none_eabi/bin/../lib/gcc/arm-none-eabi/4.4.1/../../../../arm-none-eabi/lib/thumb2/libc.a(lib_a-sbrkr.o)
                              /Applications/Arduino.app/Contents/Resources/Java/hardware/tools/g++_arm_none_eabi/bin/../lib/gcc/arm-none-eabi/4.4.1/../../../../arm-none-eabi/lib/thumb2/libc.a(lib_a-freer.o) (_sbrk_r)
/Applications/Arduino.app/Contents/Resources/Java/hardware/tools/g++_arm_none_eabi/bin/../lib/gcc/arm-none-eabi/4.4.1/../../../../arm-none-eabi/lib/thumb2/libc.a(lib_a-signal.o)
                              /Applications/Arduino.app/Contents/Resources/Java/hardware/tools/g++_arm_none_eabi/bin/../lib/gcc/arm-none-eabi/4.4.1/../../../../arm-none-eabi/lib/thumb2/libc.a(lib_a-abort.o) (raise)
/Applications/Arduino.app/Contents/Resources/Java/hardware/tools/g++_arm_none_eabi/bin/../lib/gcc/arm-none-eabi/4.4.1/../../../../arm-none-eabi/lib/thumb2/libc.a(lib_a-signalr.o)
                              /Applications/Arduino.app/Contents/Resources/Java/hardware/tools/g++_arm_none_eabi/bin/../lib/gcc/arm-none-eabi/4.4.1/../../../../arm-none-eabi/lib/thumb2/libc.a(lib_a-signal.o) (_getpid_r)
/Applications/Arduino.app/Contents/Resources/Java/hardware/tools/g++_arm_none_eabi/bin/../lib/gcc/arm-none-eabi/4.4.1/../../../../arm-none-eabi/lib/thumb2/libc.a(lib_a-stdio.o)
                              /Applications/Arduino.app/Contents/Resources/Java/hardware/tools/g++_arm_none_eabi/bin/../lib/gcc/arm-none-eabi/4.4.1/../../../../arm-none-eabi/lib/thumb2/libc.a(lib_a-findfp.o) (__sclose)
/Applications/Arduino.app/Contents/Resources/Java/hardware/tools/g++_arm_none_eabi/bin/../lib/gcc/arm-none-eabi/4.4.1/../../../../arm-none-eabi/lib/thumb2/libc.a(lib_a-writer.o)
                              /Applications/Arduino.app/Contents/Resources/Java/hardware/tools/g++_arm_none_eabi/bin/../lib/gcc/arm-none-eabi/4.4.1/../../../../arm-none-eabi/lib/thumb2/libc.a(lib_a-stdio.o) (_write_r)
/Applications/Arduino.app/Contents/Resources/Java/hardware/tools/g++_arm_none_eabi/bin/../lib/gcc/arm-none-eabi/4.4.1/../../../../arm-none-eabi/lib/thumb2/libc.a(lib_a-closer.o)
                              /Applications/Arduino.app/Contents/Resources/Java/hardware/tools/g++_arm_none_eabi/bin/../lib/gcc/arm-none-eabi/4.4.1/../../../../arm-none-eabi/lib/thumb2/libc.a(lib_a-stdio.o) (_close_r)
/Applications/Arduino.app/Contents/Resources/Java/hardware/tools/g++_arm_none_eabi/bin/../lib/gcc/arm-none-eabi/4.4.1/../../../../arm-none-eabi/lib/thumb2/libc.a(lib_a-fclose.o)
                              /Applications/Arduino.app/Contents/Resources/Java/hardware/tools/g++_arm_none_eabi/bin/../lib/gcc/arm-none-eabi/4.4.1/../../../../arm-none-eabi/lib/thumb2/libc.a(lib_a-findfp.o) (fclose)
/Applications/Arduino.app/Contents/Resources/Java/hardware/tools/g++_arm_none_eabi/bin/../lib/gcc/arm-none-eabi/4.4.1/../../../../arm-none-eabi/lib/thumb2/libc.a(lib_a-fstatr.o)
                              /Applications/Arduino.app/Contents/Resources/Java/hardware/tools/g++_arm_none_eabi/bin/../lib/gcc/arm-none-eabi/4.4.1/../../../../arm-none-eabi/lib/thumb2/libc.a(lib_a-makebuf.o) (_fstat_r)
/Applications/Arduino.app/Contents/Resources/Java/hardware/tools/g++_arm_none_eabi/bin/../lib/gcc/arm-none-eabi/4.4.1/../../../../arm-none-eabi/lib/thumb2/libc.a(lib_a-isattyr.o)
                              /Applications/Arduino.app/Contents/Resources/Java/hardware/tools/g++_arm_none_eabi/bin/../lib/gcc/arm-none-eabi/4.4.1/../../../../arm-none-eabi/lib/thumb2/libc.a(lib_a-makebuf.o) (_isatty_r)
/Applications/Arduino.app/Contents/Resources/Java/hardware/tools/g++_arm_none_eabi/bin/../lib/gcc/arm-none-eabi/4.4.1/../../../../arm-none-eabi/lib/thumb2/libc.a(lib_a-lseekr.o)
                              /Applications/Arduino.app/Contents/Resources/Java/hardware/tools/g++_arm_none_eabi/bin/../lib/gcc/arm-none-eabi/4.4.1/../../../../arm-none-eabi/lib/thumb2/libc.a(lib_a-stdio.o) (_lseek_r)
/Applications/Arduino.app/Contents/Resources/Java/hardware/tools/g++_arm_none_eabi/bin/../lib/gcc/arm-none-eabi/4.4.1/../../../../arm-none-eabi/lib/thumb2/libc.a(lib_a-readr.o)
                              /Applications/Arduino.app/Contents/Resources/Java/hardware/tools/g++_arm_none_eabi/bin/../lib/gcc/arm-none-eabi/4.4.1/../../../../arm-none-eabi/lib/thumb2/libc.a(lib_a-stdio.o) (_read_r)
/Applications/Arduino.app/Contents/Resources/Java/hardware/tools/g++_arm_none_eabi/bin/../lib/gcc/arm-none-eabi/4.4.1/../../../../arm-none-eabi/lib/thumb2/libc.a(lib_a-reent.o)
                              /Applications/Arduino.app/Contents/Resources/Java/hardware/tools/g++_arm_none_eabi/bin/../lib/gcc/arm-none-eabi/4.4.1/../../../../arm-none-eabi/lib/thumb2/libc.a(lib_a-sbrkr.o) (errno)
/Applications/Arduino.app/Contents/Resources/Java/hardware/tools/g++_arm_none_eabi/bin/../lib/gcc/arm-none-eabi/4.4.1/thumb2/libgcc.a(_udivsi3.o)
                              /Applications/Arduino.app/Contents/Resources/Java/hardware/tools/g++_arm_none_eabi/bin/../lib/gcc/arm-none-eabi/4.4.1/../../../../arm-none-eabi/lib/thumb2/libc.a(lib_a-vfiprintf.o) (__aeabi_uidiv)
/Applications/Arduino.app/Contents/Resources/Java/hardware/tools/g++_arm_none_eabi/bin/../lib/gcc/arm-none-eabi/4.4.1/thumb2/libgcc.a(_dvmd_tls.o)
                              /Applications/Arduino.app/Contents/Resources/Java/hardware/tools/g++_arm_none_eabi/bin/../lib/gcc/arm-none-eabi/4.4.1/thumb2/libgcc.a(_udivsi3.o) (__aeabi_idiv0)

Allocating common symbols
Common symbol       size              file

errno               0x4               /Applications/Arduino.app/Contents/Resources/Java/hardware/tools/g++_arm_none_eabi/bin/../lib/gcc/arm-none-eabi/4.4.1/../../../../arm-none-eabi/lib/thumb2/libc.a(lib_a-reent.o)

Discarded input sections

 .text          0x00000000        0x0 /Applications/Arduino.app/Contents/Resources/Java/hardware/tools/g++_arm_none_eabi/bin/../lib/gcc/arm-none-eabi/4.4.1/thumb2/crti.o
 .data          0x00000000        0x0 /Applications/Arduino.app/Contents/Resources/Java/hardware/tools/g++_arm_none_eabi/bin/../lib/gcc/arm-none-eabi/4.4.1/thumb2/crti.o
 .bss           0x00000000        0x0 /Applications/Arduino.app/Contents/Resources/Java/hardware/tools/g++_arm_none_eabi/bin/../lib/gcc/arm-none-eabi/4.4.1/thumb2/crti.o
 .data          0x00000000        0x4 /Applications/Arduino.app/Contents/Resources/Java/hardware/tools/g++_arm_none_eabi/bin/../lib/gcc/arm-none-eabi/4.4.1/thumb2/crtbegin.o
 .text          0x00000000        0x0 Builds/variant.o
 .data          0x00000000        0x0 Builds/variant.o
 .bss           0x00000000        0x0 Builds/variant.o
 .text          0x00000000        0x0 Builds/syscalls_sam3.o
 .data          0x00000000        0x0 Builds/syscalls_sam3.o
 .bss           0x00000000        0x0 Builds/syscalls_sam3.o
 .text._sbrk    0x00000000       0x20 Builds/syscalls_sam3.o
 .text.link     0x00000000        0x6 Builds/syscalls_sam3.o
 .text._close   0x00000000        0x6 Builds/syscalls_sam3.o
 .text._fstat   0x00000000        0xa Builds/syscalls_sam3.o
 .text._isatty  0x00000000        0x4 Builds/syscalls_sam3.o
 .text._lseek   0x00000000        0x4 Builds/syscalls_sam3.o
 .text._read    0x00000000        0x4 Builds/syscalls_sam3.o
 .text._write   0x00000000       0x20 Builds/syscalls_sam3.o
 .text._kill    0x00000000        0x2 Builds/syscalls_sam3.o
 .text._getpid  0x00000000        0x6 Builds/syscalls_sam3.o
 .text._exit    0x00000000       0x10 Builds/syscalls_sam3.o
 .rodata.str1.1
                0x00000000       0x19 Builds/syscalls_sam3.o
 .bss.heap.3798
                0x00000000        0x4 Builds/syscalls_sam3.o
 .text          0x00000000        0x0 /Applications/Arduino.app/Contents/Resources/Java/hardware/arduino/sam/variants/arduino_due_x/libsam_sam3x8e_gcc_rel.a(pio.o)
 .data          0x00000000        0x0 /Applications/Arduino.app/Contents/Resources/Java/hardware/arduino/sam/variants/arduino_due_x/libsam_sam3x8e_gcc_rel.a(pio.o)
 .bss           0x00000000        0x0 /Applications/Arduino.app/Contents/Resources/Java/hardware/arduino/sam/variants/arduino_due_x/libsam_sam3x8e_gcc_rel.a(pio.o)
 .text.PIO_SetDebounceFilter
                0x00000000       0x1a /Applications/Arduino.app/Contents/Resources/Java/hardware/arduino/sam/variants/arduino_due_x/libsam_sam3x8e_gcc_rel.a(pio.o)
 .text.PIO_Set  0x00000000        0x4 /Applications/Arduino.app/Contents/Resources/Java/hardware/arduino/sam/variants/arduino_due_x/libsam_sam3x8e_gcc_rel.a(pio.o)
 .text.PIO_Get  0x00000000       0x16 /Applications/Arduino.app/Contents/Resources/Java/hardware/arduino/sam/variants/arduino_due_x/libsam_sam3x8e_gcc_rel.a(pio.o)
 .text.PIO_Clear
                0x00000000        0x4 /Applications/Arduino.app/Contents/Resources/Java/hardware/arduino/sam/variants/arduino_due_x/libsam_sam3x8e_gcc_rel.a(pio.o)
 .text          0x00000000        0x0 /Applications/Arduino.app/Contents/Resources/Java/hardware/arduino/sam/variants/arduino_due_x/libsam_sam3x8e_gcc_rel.a(pmc.o)
 .data          0x00000000        0x0 /Applications/Arduino.app/Contents/Resources/Java/hardware/arduino/sam/variants/arduino_due_x/libsam_sam3x8e_gcc_rel.a(pmc.o)
 .bss           0x00000000        0x0 /Applications/Arduino.app/Contents/Resources/Java/hardware/arduino/sam/variants/arduino_due_x/libsam_sam3x8e_gcc_rel.a(pmc.o)
 .text.pmc_mck_set_prescaler
                0x00000000       0x20 /Applications/Arduino.app/Contents/Resources/Java/hardware/arduino/sam/variants/arduino_due_x/libsam_sam3x8e_gcc_rel.a(pmc.o)
 .text.pmc_mck_set_source
                0x00000000       0x20 /Applications/Arduino.app/Contents/Resources/Java/hardware/arduino/sam/variants/arduino_due_x/libsam_sam3x8e_gcc_rel.a(pmc.o)
 .text.pmc_switch_mck_to_sclk
                0x00000000       0x4c /Applications/Arduino.app/Contents/Resources/Java/hardware/arduino/sam/variants/arduino_due_x/libsam_sam3x8e_gcc_rel.a(pmc.o)
 .text.pmc_switch_mck_to_mainck
                0x00000000       0x50 /Applications/Arduino.app/Contents/Resources/Java/hardware/arduino/sam/variants/arduino_due_x/libsam_sam3x8e_gcc_rel.a(pmc.o)
 .text.pmc_switch_mck_to_pllack
                0x00000000       0x54 /Applications/Arduino.app/Contents/Resources/Java/hardware/arduino/sam/variants/arduino_due_x/libsam_sam3x8e_gcc_rel.a(pmc.o)
 .text.pmc_switch_mck_to_upllck
                0x00000000       0x50 /Applications/Arduino.app/Contents/Resources/Java/hardware/arduino/sam/variants/arduino_due_x/libsam_sam3x8e_gcc_rel.a(pmc.o)
 .text.pmc_switch_sclk_to_32kxtal
                0x00000000       0x28 /Applications/Arduino.app/Contents/Resources/Java/hardware/arduino/sam/variants/arduino_due_x/libsam_sam3x8e_gcc_rel.a(pmc.o)
 .text.pmc_osc_is_ready_32kxtal
                0x00000000       0x1c /Applications/Arduino.app/Contents/Resources/Java/hardware/arduino/sam/variants/arduino_due_x/libsam_sam3x8e_gcc_rel.a(pmc.o)
 .text.pmc_switch_mainck_to_fastrc
                0x00000000       0x74 /Applications/Arduino.app/Contents/Resources/Java/hardware/arduino/sam/variants/arduino_due_x/libsam_sam3x8e_gcc_rel.a(pmc.o)
 .text.pmc_osc_enable_fastrc
                0x00000000       0x20 /Applications/Arduino.app/Contents/Resources/Java/hardware/arduino/sam/variants/arduino_due_x/libsam_sam3x8e_gcc_rel.a(pmc.o)
 .text.pmc_osc_disable_fastrc
                0x00000000       0x18 /Applications/Arduino.app/Contents/Resources/Java/hardware/arduino/sam/variants/arduino_due_x/libsam_sam3x8e_gcc_rel.a(pmc.o)
 .text.pmc_switch_mainck_to_xtal
                0x00000000       0x50 /Applications/Arduino.app/Contents/Resources/Java/hardware/arduino/sam/variants/arduino_due_x/libsam_sam3x8e_gcc_rel.a(pmc.o)
 .text.pmc_osc_disable_xtal
                0x00000000       0x28 /Applications/Arduino.app/Contents/Resources/Java/hardware/arduino/sam/variants/arduino_due_x/libsam_sam3x8e_gcc_rel.a(pmc.o)
 .text.pmc_osc_is_ready_mainck
                0x00000000       0x10 /Applications/Arduino.app/Contents/Resources/Java/hardware/arduino/sam/variants/arduino_due_x/libsam_sam3x8e_gcc_rel.a(pmc.o)
 .text.pmc_disable_pllack
                0x00000000       0x10 /Applications/Arduino.app/Contents/Resources/Java/hardware/arduino/sam/variants/arduino_due_x/libsam_sam3x8e_gcc_rel.a(pmc.o)
 .text.pmc_enable_pllack
                0x00000000       0x44 /Applications/Arduino.app/Contents/Resources/Java/hardware/arduino/sam/variants/arduino_due_x/libsam_sam3x8e_gcc_rel.a(pmc.o)
 .text.pmc_is_locked_pllack
                0x00000000       0x10 /Applications/Arduino.app/Contents/Resources/Java/hardware/arduino/sam/variants/arduino_due_x/libsam_sam3x8e_gcc_rel.a(pmc.o)
 .text.pmc_disable_upll_clock
                0x00000000       0x10 /Applications/Arduino.app/Contents/Resources/Java/hardware/arduino/sam/variants/arduino_due_x/libsam_sam3x8e_gcc_rel.a(pmc.o)
 .text.pmc_is_locked_upll
                0x00000000       0x10 /Applications/Arduino.app/Contents/Resources/Java/hardware/arduino/sam/variants/arduino_due_x/libsam_sam3x8e_gcc_rel.a(pmc.o)
 .text.pmc_enable_all_periph_clk
                0x00000000       0x30 /Applications/Arduino.app/Contents/Resources/Java/hardware/arduino/sam/variants/arduino_due_x/libsam_sam3x8e_gcc_rel.a(pmc.o)
 .text.pmc_disable_all_periph_clk
                0x00000000       0x2c /Applications/Arduino.app/Contents/Resources/Java/hardware/arduino/sam/variants/arduino_due_x/libsam_sam3x8e_gcc_rel.a(pmc.o)
 .text.pmc_is_periph_clk_enabled
                0x00000000       0x34 /Applications/Arduino.app/Contents/Resources/Java/hardware/arduino/sam/variants/arduino_due_x/libsam_sam3x8e_gcc_rel.a(pmc.o)
 .text.pmc_pck_set_prescaler
                0x00000000       0x34 /Applications/Arduino.app/Contents/Resources/Java/hardware/arduino/sam/variants/arduino_due_x/libsam_sam3x8e_gcc_rel.a(pmc.o)
 .text.pmc_pck_set_source
                0x00000000       0x34 /Applications/Arduino.app/Contents/Resources/Java/hardware/arduino/sam/variants/arduino_due_x/libsam_sam3x8e_gcc_rel.a(pmc.o)
 .text.pmc_switch_pck_to_sclk
                0x00000000       0x30 /Applications/Arduino.app/Contents/Resources/Java/hardware/arduino/sam/variants/arduino_due_x/libsam_sam3x8e_gcc_rel.a(pmc.o)
 .text.pmc_switch_pck_to_mainck
                0x00000000       0x34 /Applications/Arduino.app/Contents/Resources/Java/hardware/arduino/sam/variants/arduino_due_x/libsam_sam3x8e_gcc_rel.a(pmc.o)
 .text.pmc_switch_pck_to_pllack
                0x00000000       0x34 /Applications/Arduino.app/Contents/Resources/Java/hardware/arduino/sam/variants/arduino_due_x/libsam_sam3x8e_gcc_rel.a(pmc.o)
 .text.pmc_switch_pck_to_upllck
                0x00000000       0x34 /Applications/Arduino.app/Contents/Resources/Java/hardware/arduino/sam/variants/arduino_due_x/libsam_sam3x8e_gcc_rel.a(pmc.o)
 .text.pmc_enable_pck
                0x00000000       0x10 /Applications/Arduino.app/Contents/Resources/Java/hardware/arduino/sam/variants/arduino_due_x/libsam_sam3x8e_gcc_rel.a(pmc.o)
 .text.pmc_disable_pck
                0x00000000       0x10 /Applications/Arduino.app/Contents/Resources/Java/hardware/arduino/sam/variants/arduino_due_x/libsam_sam3x8e_gcc_rel.a(pmc.o)
 .text.pmc_enable_all_pck
                0x00000000       0x10 /Applications/Arduino.app/Contents/Resources/Java/hardware/arduino/sam/variants/arduino_due_x/libsam_sam3x8e_gcc_rel.a(pmc.o)
 .text.pmc_disable_all_pck
                0x00000000       0x10 /Applications/Arduino.app/Contents/Resources/Java/hardware/arduino/sam/variants/arduino_due_x/libsam_sam3x8e_gcc_rel.a(pmc.o)
 .text.pmc_is_pck_enabled
                0x00000000       0x1c /Applications/Arduino.app/Contents/Resources/Java/hardware/arduino/sam/variants/arduino_due_x/libsam_sam3x8e_gcc_rel.a(pmc.o)
 .text.pmc_switch_udpck_to_pllack
                0x00000000       0x10 /Applications/Arduino.app/Contents/Resources/Java/hardware/arduino/sam/variants/arduino_due_x/libsam_sam3x8e_gcc_rel.a(pmc.o)
 .text.pmc_disable_udpck
                0x00000000        0xc /Applications/Arduino.app/Contents/Resources/Java/hardware/arduino/sam/variants/arduino_due_x/libsam_sam3x8e_gcc_rel.a(pmc.o)
 .text.pmc_enable_interrupt
                0x00000000        0xc /Applications/Arduino.app/Contents/Resources/Java/hardware/arduino/sam/variants/arduino_due_x/libsam_sam3x8e_gcc_rel.a(pmc.o)
 .text.pmc_disable_interrupt
                0x00000000        0xc /Applications/Arduino.app/Contents/Resources/Java/hardware/arduino/sam/variants/arduino_due_x/libsam_sam3x8e_gcc_rel.a(pmc.o)
 .text.pmc_get_interrupt_mask
                0x00000000        0xc /Applications/Arduino.app/Contents/Resources/Java/hardware/arduino/sam/variants/arduino_due_x/libsam_sam3x8e_gcc_rel.a(pmc.o)
 .text.pmc_get_status
                0x00000000        0xc /Applications/Arduino.app/Contents/Resources/Java/hardware/arduino/sam/variants/arduino_due_x/libsam_sam3x8e_gcc_rel.a(pmc.o)
 .text.pmc_set_fast_startup_input
                0x00000000       0x14 /Applications/Arduino.app/Contents/Resources/Java/hardware/arduino/sam/variants/arduino_due_x/libsam_sam3x8e_gcc_rel.a(pmc.o)
 .text.pmc_clr_fast_startup_input
                0x00000000       0x14 /Applications/Arduino.app/Contents/Resources/Java/hardware/arduino/sam/variants/arduino_due_x/libsam_sam3x8e_gcc_rel.a(pmc.o)
 .text.pmc_enable_sleepmode
                0x00000000       0x28 /Applications/Arduino.app/Contents/Resources/Java/hardware/arduino/sam/variants/arduino_due_x/libsam_sam3x8e_gcc_rel.a(pmc.o)
 .text.pmc_enable_waitmode
                0x00000000       0x38 /Applications/Arduino.app/Contents/Resources/Java/hardware/arduino/sam/variants/arduino_due_x/libsam_sam3x8e_gcc_rel.a(pmc.o)
 .text.pmc_enable_backupmode
                0x00000000       0x14 /Applications/Arduino.app/Contents/Resources/Java/hardware/arduino/sam/variants/arduino_due_x/libsam_sam3x8e_gcc_rel.a(pmc.o)
 .text.pmc_set_writeprotect
                0x00000000       0x1c /Applications/Arduino.app/Contents/Resources/Java/hardware/arduino/sam/variants/arduino_due_x/libsam_sam3x8e_gcc_rel.a(pmc.o)
 .text.pmc_get_writeprotect_status
                0x00000000       0x10 /Applications/Arduino.app/Contents/Resources/Java/hardware/arduino/sam/variants/arduino_due_x/libsam_sam3x8e_gcc_rel.a(pmc.o)
 .text          0x00000000        0x0 /Applications/Arduino.app/Contents/Resources/Java/hardware/arduino/sam/variants/arduino_due_x/libsam_sam3x8e_gcc_rel.a(wdt.o)
 .data          0x00000000        0x0 /Applications/Arduino.app/Contents/Resources/Java/hardware/arduino/sam/variants/arduino_due_x/libsam_sam3x8e_gcc_rel.a(wdt.o)
 .bss           0x00000000        0x0 /Applications/Arduino.app/Contents/Resources/Java/hardware/arduino/sam/variants/arduino_due_x/libsam_sam3x8e_gcc_rel.a(wdt.o)
 .text.WDT_Enable
                0x00000000        0x4 /Applications/Arduino.app/Contents/Resources/Java/hardware/arduino/sam/variants/arduino_due_x/libsam_sam3x8e_gcc_rel.a(wdt.o)
 .text.WDT_Restart
                0x00000000        0xc /Applications/Arduino.app/Contents/Resources/Java/hardware/arduino/sam/variants/arduino_due_x/libsam_sam3x8e_gcc_rel.a(wdt.o)
 .text.WDT_GetStatus
                0x00000000        0x8 /Applications/Arduino.app/Contents/Resources/Java/hardware/arduino/sam/variants/arduino_due_x/libsam_sam3x8e_gcc_rel.a(wdt.o)
 .text.WDT_GetPeriod
                0x00000000       0x1a /Applications/Arduino.app/Contents/Resources/Java/hardware/arduino/sam/variants/arduino_due_x/libsam_sam3x8e_gcc_rel.a(wdt.o)
 .text          0x00000000        0x0 /Applications/Arduino.app/Contents/Resources/Java/hardware/arduino/sam/variants/arduino_due_x/libsam_sam3x8e_gcc_rel.a(system_sam3xa.o)
 .data          0x00000000        0x0 /Applications/Arduino.app/Contents/Resources/Java/hardware/arduino/sam/variants/arduino_due_x/libsam_sam3x8e_gcc_rel.a(system_sam3xa.o)
 .bss           0x00000000        0x0 /Applications/Arduino.app/Contents/Resources/Java/hardware/arduino/sam/variants/arduino_due_x/libsam_sam3x8e_gcc_rel.a(system_sam3xa.o)
 .text.SystemCoreClockUpdate
                0x00000000       0xe4 /Applications/Arduino.app/Contents/Resources/Java/hardware/arduino/sam/variants/arduino_due_x/libsam_sam3x8e_gcc_rel.a(system_sam3xa.o)
 .text.system_init_flash
                0x00000000       0x58 /Applications/Arduino.app/Contents/Resources/Java/hardware/arduino/sam/variants/arduino_due_x/libsam_sam3x8e_gcc_rel.a(system_sam3xa.o)
 .text          0x00000000        0x0 /Applications/Arduino.app/Contents/Resources/Java/hardware/arduino/sam/variants/arduino_due_x/libsam_sam3x8e_gcc_rel.a(startup_sam3xa.o)
 .data          0x00000000        0x0 /Applications/Arduino.app/Contents/Resources/Java/hardware/arduino/sam/variants/arduino_due_x/libsam_sam3x8e_gcc_rel.a(startup_sam3xa.o)
 .bss           0x00000000        0x0 /Applications/Arduino.app/Contents/Resources/Java/hardware/arduino/sam/variants/arduino_due_x/libsam_sam3x8e_gcc_rel.a(startup_sam3xa.o)
 .text          0x00000000        0x0 /Applications/Arduino.app/Contents/Resources/Java/hardware/arduino/sam/variants/arduino_due_x/libsam_sam3x8e_gcc_rel.a(adc.o)
 .data          0x00000000        0x0 /Applications/Arduino.app/Contents/Resources/Java/hardware/arduino/sam/variants/arduino_due_x/libsam_sam3x8e_gcc_rel.a(adc.o)
 .bss           0x00000000        0x0 /Applications/Arduino.app/Contents/Resources/Java/hardware/arduino/sam/variants/arduino_due_x/libsam_sam3x8e_gcc_rel.a(adc.o)
 .text.adc_set_resolution
                0x00000000       0x10 /Applications/Arduino.app/Contents/Resources/Java/hardware/arduino/sam/variants/arduino_due_x/libsam_sam3x8e_gcc_rel.a(adc.o)
 .text.adc_configure_power_save
                0x00000000       0x18 /Applications/Arduino.app/Contents/Resources/Java/hardware/arduino/sam/variants/arduino_due_x/libsam_sam3x8e_gcc_rel.a(adc.o)
 .text.adc_configure_sequence
                0x00000000       0x58 /Applications/Arduino.app/Contents/Resources/Java/hardware/arduino/sam/variants/arduino_due_x/libsam_sam3x8e_gcc_rel.a(adc.o)
 .text.adc_enable_anch
                0x00000000        0xa /Applications/Arduino.app/Contents/Resources/Java/hardware/arduino/sam/variants/arduino_due_x/libsam_sam3x8e_gcc_rel.a(adc.o)
 .text.adc_disable_anch
                0x00000000        0xa /Applications/Arduino.app/Contents/Resources/Java/hardware/arduino/sam/variants/arduino_due_x/libsam_sam3x8e_gcc_rel.a(adc.o)
 .text.adc_start
                0x00000000        0x6 /Applications/Arduino.app/Contents/Resources/Java/hardware/arduino/sam/variants/arduino_due_x/libsam_sam3x8e_gcc_rel.a(adc.o)
 .text.adc_stop
                0x00000000        0x6 /Applications/Arduino.app/Contents/Resources/Java/hardware/arduino/sam/variants/arduino_due_x/libsam_sam3x8e_gcc_rel.a(adc.o)
 .text.adc_enable_channel
                0x00000000        0x8 /Applications/Arduino.app/Contents/Resources/Java/hardware/arduino/sam/variants/arduino_due_x/libsam_sam3x8e_gcc_rel.a(adc.o)
 .text.adc_enable_all_channel
                0x00000000        0x8 /Applications/Arduino.app/Contents/Resources/Java/hardware/arduino/sam/variants/arduino_due_x/libsam_sam3x8e_gcc_rel.a(adc.o)
 .text.adc_disable_channel
                0x00000000        0x8 /Applications/Arduino.app/Contents/Resources/Java/hardware/arduino/sam/variants/arduino_due_x/libsam_sam3x8e_gcc_rel.a(adc.o)
 .text.adc_get_channel_status
                0x00000000        0xa /Applications/Arduino.app/Contents/Resources/Java/hardware/arduino/sam/variants/arduino_due_x/libsam_sam3x8e_gcc_rel.a(adc.o)
 .text.adc_get_channel_value
                0x00000000       0x10 /Applications/Arduino.app/Contents/Resources/Java/hardware/arduino/sam/variants/arduino_due_x/libsam_sam3x8e_gcc_rel.a(adc.o)
 .text.adc_get_latest_value
                0x00000000        0x4 /Applications/Arduino.app/Contents/Resources/Java/hardware/arduino/sam/variants/arduino_due_x/libsam_sam3x8e_gcc_rel.a(adc.o)
 .text.adc_enable_tag
                0x00000000        0xa /Applications/Arduino.app/Contents/Resources/Java/hardware/arduino/sam/variants/arduino_due_x/libsam_sam3x8e_gcc_rel.a(adc.o)
 .text.adc_disable_tag
                0x00000000        0xa /Applications/Arduino.app/Contents/Resources/Java/hardware/arduino/sam/variants/arduino_due_x/libsam_sam3x8e_gcc_rel.a(adc.o)
 .text.adc_get_tag
                0x00000000        0xa /Applications/Arduino.app/Contents/Resources/Java/hardware/arduino/sam/variants/arduino_due_x/libsam_sam3x8e_gcc_rel.a(adc.o)
 .text.adc_start_sequencer
                0x00000000        0xa /Applications/Arduino.app/Contents/Resources/Java/hardware/arduino/sam/variants/arduino_due_x/libsam_sam3x8e_gcc_rel.a(adc.o)
 .text.adc_stop_sequencer
                0x00000000        0xa /Applications/Arduino.app/Contents/Resources/Java/hardware/arduino/sam/variants/arduino_due_x/libsam_sam3x8e_gcc_rel.a(adc.o)
 .text.adc_set_comparison_mode
                0x00000000       0x16 /Applications/Arduino.app/Contents/Resources/Java/hardware/arduino/sam/variants/arduino_due_x/libsam_sam3x8e_gcc_rel.a(adc.o)
 .text.adc_get_comparison_mode
                0x00000000        0x8 /Applications/Arduino.app/Contents/Resources/Java/hardware/arduino/sam/variants/arduino_due_x/libsam_sam3x8e_gcc_rel.a(adc.o)
 .text.adc_set_comparison_window
                0x00000000       0x14 /Applications/Arduino.app/Contents/Resources/Java/hardware/arduino/sam/variants/arduino_due_x/libsam_sam3x8e_gcc_rel.a(adc.o)
 .text.adc_set_comparison_channel
                0x00000000       0x28 /Applications/Arduino.app/Contents/Resources/Java/hardware/arduino/sam/variants/arduino_due_x/libsam_sam3x8e_gcc_rel.a(adc.o)
 .text.adc_enable_channel_differential_input
                0x00000000       0x12 /Applications/Arduino.app/Contents/Resources/Java/hardware/arduino/sam/variants/arduino_due_x/libsam_sam3x8e_gcc_rel.a(adc.o)
 .text.adc_disable_channel_differential_input
                0x00000000       0x1c /Applications/Arduino.app/Contents/Resources/Java/hardware/arduino/sam/variants/arduino_due_x/libsam_sam3x8e_gcc_rel.a(adc.o)
 .text.adc_enable_channel_input_offset
                0x00000000        0xe /Applications/Arduino.app/Contents/Resources/Java/hardware/arduino/sam/variants/arduino_due_x/libsam_sam3x8e_gcc_rel.a(adc.o)
 .text.adc_disable_channel_input_offset
                0x00000000       0x1c /Applications/Arduino.app/Contents/Resources/Java/hardware/arduino/sam/variants/arduino_due_x/libsam_sam3x8e_gcc_rel.a(adc.o)
 .text.adc_set_channel_input_gain
                0x00000000       0x14 /Applications/Arduino.app/Contents/Resources/Java/hardware/arduino/sam/variants/arduino_due_x/libsam_sam3x8e_gcc_rel.a(adc.o)
 .text.adc_get_actual_adc_clock
                0x00000000       0x10 /Applications/Arduino.app/Contents/Resources/Java/hardware/arduino/sam/variants/arduino_due_x/libsam_sam3x8e_gcc_rel.a(adc.o)
 .text.adc_enable_interrupt
                0x00000000        0x4 /Applications/Arduino.app/Contents/Resources/Java/hardware/arduino/sam/variants/arduino_due_x/libsam_sam3x8e_gcc_rel.a(adc.o)
 .text.adc_get_status
                0x00000000        0x4 /Applications/Arduino.app/Contents/Resources/Java/hardware/arduino/sam/variants/arduino_due_x/libsam_sam3x8e_gcc_rel.a(adc.o)
 .text.adc_get_overrun_status
                0x00000000        0x4 /Applications/Arduino.app/Contents/Resources/Java/hardware/arduino/sam/variants/arduino_due_x/libsam_sam3x8e_gcc_rel.a(adc.o)
 .text.adc_get_interrupt_mask
                0x00000000        0x4 /Applications/Arduino.app/Contents/Resources/Java/hardware/arduino/sam/variants/arduino_due_x/libsam_sam3x8e_gcc_rel.a(adc.o)
 .text.adc_set_bias_current
                0x00000000       0x14 /Applications/Arduino.app/Contents/Resources/Java/hardware/arduino/sam/variants/arduino_due_x/libsam_sam3x8e_gcc_rel.a(adc.o)
 .text.adc_enable_ts
                0x00000000        0xe /Applications/Arduino.app/Contents/Resources/Java/hardware/arduino/sam/variants/arduino_due_x/libsam_sam3x8e_gcc_rel.a(adc.o)
 .text.adc_disable_ts
                0x00000000        0xe /Applications/Arduino.app/Contents/Resources/Java/hardware/arduino/sam/variants/arduino_due_x/libsam_sam3x8e_gcc_rel.a(adc.o)
 .text.adc_set_writeprotect
                0x00000000        0xe /Applications/Arduino.app/Contents/Resources/Java/hardware/arduino/sam/variants/arduino_due_x/libsam_sam3x8e_gcc_rel.a(adc.o)
 .text.adc_get_writeprotect_status
                0x00000000        0xa /Applications/Arduino.app/Contents/Resources/Java/hardware/arduino/sam/variants/arduino_due_x/libsam_sam3x8e_gcc_rel.a(adc.o)
 .text.adc_get_pdc_base
                0x00000000        0x8 /Applications/Arduino.app/Contents/Resources/Java/hardware/arduino/sam/variants/arduino_due_x/libsam_sam3x8e_gcc_rel.a(adc.o)
 .text          0x00000000        0x0 /Applications/Arduino.app/Contents/Resources/Java/hardware/arduino/sam/variants/arduino_due_x/libsam_sam3x8e_gcc_rel.a(uotghs.o)
 .data          0x00000000        0x0 /Applications/Arduino.app/Contents/Resources/Java/hardware/arduino/sam/variants/arduino_due_x/libsam_sam3x8e_gcc_rel.a(uotghs.o)
 .bss           0x00000000        0x0 /Applications/Arduino.app/Contents/Resources/Java/hardware/arduino/sam/variants/arduino_due_x/libsam_sam3x8e_gcc_rel.a(uotghs.o)
 .text          0x00000000        0x0 Builds/LocalLibrary.o
 .data          0x00000000        0x0 Builds/LocalLibrary.o
 .bss           0x00000000        0x0 Builds/LocalLibrary.o
 .text          0x00000000        0x0 Builds/main.o
 .data          0x00000000        0x0 Builds/main.o
 .bss           0x00000000        0x0 Builds/main.o
 .text.setup    0x00000000        0x2 Builds/main.o
 .text.loop     0x00000000        0x2 Builds/main.o
 .text          0x00000000        0x0 Builds/embeddedcomputing.a(WInterrupts.o)
 .data          0x00000000        0x0 Builds/embeddedcomputing.a(WInterrupts.o)
 .bss           0x00000000        0x0 Builds/embeddedcomputing.a(WInterrupts.o)
 .text.detachInterrupt
                0x00000000       0x14 Builds/embeddedcomputing.a(WInterrupts.o)
 .text.attachInterrupt
                0x00000000      0x154 Builds/embeddedcomputing.a(WInterrupts.o)
 .bss.enabled.6814
                0x00000000        0x4 Builds/embeddedcomputing.a(WInterrupts.o)
 .text          0x00000000        0x0 Builds/embeddedcomputing.a(cortex_handlers.o)
 .data          0x00000000        0x0 Builds/embeddedcomputing.a(cortex_handlers.o)
 .bss           0x00000000        0x0 Builds/embeddedcomputing.a(cortex_handlers.o)
 .text          0x00000000        0x0 Builds/embeddedcomputing.a(hooks.o)
 .data          0x00000000        0x0 Builds/embeddedcomputing.a(hooks.o)
 .bss           0x00000000        0x0 Builds/embeddedcomputing.a(hooks.o)
 .text          0x00000000        0x0 Builds/embeddedcomputing.a(wiring.o)
 .data          0x00000000        0x0 Builds/embeddedcomputing.a(wiring.o)
 .bss           0x00000000        0x0 Builds/embeddedcomputing.a(wiring.o)
 .text.micros   0x00000000       0x7c Builds/embeddedcomputing.a(wiring.o)
 .text.millis   0x00000000        0x4 Builds/embeddedcomputing.a(wiring.o)
 .text          0x00000000        0x0 Builds/embeddedcomputing.a(wiring_analog.o)
 .data          0x00000000        0x0 Builds/embeddedcomputing.a(wiring_analog.o)
 .bss           0x00000000        0x0 Builds/embeddedcomputing.a(wiring_analog.o)
 .text.analogReadResolution
                0x00000000        0xc Builds/embeddedcomputing.a(wiring_analog.o)
 .text.analogWriteResolution
                0x00000000        0xc Builds/embeddedcomputing.a(wiring_analog.o)
 .text.analogReference
                0x00000000        0xc Builds/embeddedcomputing.a(wiring_analog.o)
 .text.TC_SetCMR_ChannelA
                0x00000000       0x12 Builds/embeddedcomputing.a(wiring_analog.o)
 .text.TC_SetCMR_ChannelB
                0x00000000       0x12 Builds/embeddedcomputing.a(wiring_analog.o)
 .text.analogWrite
                0x00000000      0x2bc Builds/embeddedcomputing.a(wiring_analog.o)
 .text.analogRead
                0x00000000       0x88 Builds/embeddedcomputing.a(wiring_analog.o)
 .bss.PWMEnabled
                0x00000000        0x1 Builds/embeddedcomputing.a(wiring_analog.o)
 .data._writeResolution
                0x00000000        0x4 Builds/embeddedcomputing.a(wiring_analog.o)
 .rodata.channelToChNo.6906
                0x00000000       0x48 Builds/embeddedcomputing.a(wiring_analog.o)
 .bss.TCChanEnabled
                0x00000000        0xc Builds/embeddedcomputing.a(wiring_analog.o)
 .rodata.channelToId.6909
                0x00000000       0x48 Builds/embeddedcomputing.a(wiring_analog.o)
 .rodata.channelToTC.6908
                0x00000000       0x48 Builds/embeddedcomputing.a(wiring_analog.o)
 .data.latestSelectedChannel.6826
                0x00000000        0x4 Builds/embeddedcomputing.a(wiring_analog.o)
 .rodata.channelToAB.6907
                0x00000000       0x48 Builds/embeddedcomputing.a(wiring_analog.o)
 .bss.analog_reference
                0x00000000        0x1 Builds/embeddedcomputing.a(wiring_analog.o)
 .data._readResolution
                0x00000000        0x4 Builds/embeddedcomputing.a(wiring_analog.o)
 .text          0x00000000        0x0 Builds/embeddedcomputing.a(wiring_digital.o)
 .data          0x00000000        0x0 Builds/embeddedcomputing.a(wiring_digital.o)
 .bss           0x00000000        0x0 Builds/embeddedcomputing.a(wiring_digital.o)
 .text.digitalRead
                0x00000000       0x28 Builds/embeddedcomputing.a(wiring_digital.o)
 .text.pinMode  0x00000000       0x68 Builds/embeddedcomputing.a(wiring_digital.o)
 .text          0x00000000        0x0 Builds/embeddedcomputing.a(Reset.o)
 .data          0x00000000        0x0 Builds/embeddedcomputing.a(Reset.o)
 .bss           0x00000000        0x0 Builds/embeddedcomputing.a(Reset.o)
 .text          0x00000000        0x0 Builds/embeddedcomputing.a(RingBuffer.o)
 .data          0x00000000        0x0 Builds/embeddedcomputing.a(RingBuffer.o)
 .bss           0x00000000        0x0 Builds/embeddedcomputing.a(RingBuffer.o)
 .text._ZN10RingBufferC2Ev
                0x00000000       0x16 Builds/embeddedcomputing.a(RingBuffer.o)
 .group         0x00000000        0x8 Builds/embeddedcomputing.a(UARTClass.o)
 .group         0x00000000        0x8 Builds/embeddedcomputing.a(UARTClass.o)
 .text          0x00000000        0x0 Builds/embeddedcomputing.a(UARTClass.o)
 .data          0x00000000        0x0 Builds/embeddedcomputing.a(UARTClass.o)
 .bss           0x00000000        0x0 Builds/embeddedcomputing.a(UARTClass.o)
 .text._ZN9UARTClassC2EP4Uart4IRQnmP10RingBuffer
                0x00000000       0x24 Builds/embeddedcomputing.a(UARTClass.o)
 .rodata._ZTV6Stream
                0x00000000       0x20 Builds/embeddedcomputing.a(UARTClass.o)
 .group         0x00000000        0x8 Builds/embeddedcomputing.a(USARTClass.o)
 .group         0x00000000        0x8 Builds/embeddedcomputing.a(USARTClass.o)
 .text          0x00000000        0x0 Builds/embeddedcomputing.a(USARTClass.o)
 .data          0x00000000        0x0 Builds/embeddedcomputing.a(USARTClass.o)
 .bss           0x00000000        0x0 Builds/embeddedcomputing.a(USARTClass.o)
 .text._ZN10USARTClassC2EP5Usart4IRQnmP10RingBuffer
                0x00000000       0x24 Builds/embeddedcomputing.a(USARTClass.o)
 .rodata._ZTV6Stream
                0x00000000       0x20 Builds/embeddedcomputing.a(USARTClass.o)
 .text          0x00000000        0x0 Builds/embeddedcomputing.a(cxxabi-compat.o)
 .data          0x00000000        0x0 Builds/embeddedcomputing.a(cxxabi-compat.o)
 .bss           0x00000000        0x0 Builds/embeddedcomputing.a(cxxabi-compat.o)
 .text.__cxa_pure_virtual
                0x00000000        0x2 Builds/embeddedcomputing.a(cxxabi-compat.o)
 .text          0x00000000        0x0 Builds/embeddedcomputing.a(USBCore.o)
 .data          0x00000000        0x0 Builds/embeddedcomputing.a(USBCore.o)
 .bss           0x00000000        0x0 Builds/embeddedcomputing.a(USBCore.o)
 .text._ZN10USBDevice_10configuredEv
                0x00000000       0x10 Builds/embeddedcomputing.a(USBCore.o)
 .text._ZN10USBDevice_4pollEv
                0x00000000        0x2 Builds/embeddedcomputing.a(USBCore.o)
 .text._ZN10USBDevice_6detachEv
                0x00000000       0x14 Builds/embeddedcomputing.a(USBCore.o)
 .text._ZN10USBDevice_C2Ev
                0x00000000       0x24 Builds/embeddedcomputing.a(USBCore.o)
 .text._Z14USBD_Connectedv
                0x00000000       0x1c Builds/embeddedcomputing.a(USBCore.o)
 .bss.RxLEDPulse
                0x00000000        0x1 Builds/embeddedcomputing.a(USBCore.o)
 .bss.TxLEDPulse
                0x00000000        0x1 Builds/embeddedcomputing.a(USBCore.o)
 .group         0x00000000        0x8 Builds/embeddedcomputing.a(Print.o)
 .text          0x00000000        0x0 Builds/embeddedcomputing.a(Print.o)
 .data          0x00000000        0x0 Builds/embeddedcomputing.a(Print.o)
 .bss           0x00000000        0x0 Builds/embeddedcomputing.a(Print.o)
 .text._ZN5Print5printERK6String
                0x00000000       0x10 Builds/embeddedcomputing.a(Print.o)
 .text._ZN5Print5printEc
                0x00000000        0xa Builds/embeddedcomputing.a(Print.o)
 .text._ZN5Print5printERK9Printable
                0x00000000       0x10 Builds/embeddedcomputing.a(Print.o)
 .text._ZN5Print7printlnEv
                0x00000000       0x18 Builds/embeddedcomputing.a(Print.o)
 .text._ZN5Print7printlnERK6String
                0x00000000       0x14 Builds/embeddedcomputing.a(Print.o)
 .text._ZN5Print7printlnEc
                0x00000000       0x14 Builds/embeddedcomputing.a(Print.o)
 .text._ZN5Print7printlnERK9Printable
                0x00000000       0x14 Builds/embeddedcomputing.a(Print.o)
 .text._ZN5Print5writeEPKc
                0x00000000       0x20 Builds/embeddedcomputing.a(Print.o)
 .text._ZN5Print11printNumberEmh
                0x00000000       0x3e Builds/embeddedcomputing.a(Print.o)
 .text._ZN5Print5printEmi
                0x00000000       0x1a Builds/embeddedcomputing.a(Print.o)
 .text._ZN5Print7printlnEmi
                0x00000000       0x14 Builds/embeddedcomputing.a(Print.o)
 .text._ZN5Print5printEji
                0x00000000        0x4 Builds/embeddedcomputing.a(Print.o)
 .text._ZN5Print7printlnEji
                0x00000000       0x14 Builds/embeddedcomputing.a(Print.o)
 .text._ZN5Print5printEhi
                0x00000000        0x4 Builds/embeddedcomputing.a(Print.o)
 .text._ZN5Print7printlnEhi
                0x00000000       0x14 Builds/embeddedcomputing.a(Print.o)
 .text._ZN5Print5printEli
                0x00000000       0x42 Builds/embeddedcomputing.a(Print.o)
 .text._ZN5Print7printlnEli
                0x00000000       0x14 Builds/embeddedcomputing.a(Print.o)
 .text._ZN5Print5printEii
                0x00000000        0x4 Builds/embeddedcomputing.a(Print.o)
 .text._ZN5Print7printlnEii
                0x00000000       0x14 Builds/embeddedcomputing.a(Print.o)
 .text._ZN5Print5printEPKc
                0x00000000        0x4 Builds/embeddedcomputing.a(Print.o)
 .text._ZN5Print10printFloatEdh
                0x00000000      0x13c Builds/embeddedcomputing.a(Print.o)
 .text._ZN5Print5printEdi
                0x00000000        0xa Builds/embeddedcomputing.a(Print.o)
 .text._ZN5Print7printlnEdi
                0x00000000       0x18 Builds/embeddedcomputing.a(Print.o)
 .text._ZN5Print7printlnEPKc
                0x00000000       0x14 Builds/embeddedcomputing.a(Print.o)
 .text._ZN5Print5printEPK19__FlashStringHelper
                0x00000000        0x4 Builds/embeddedcomputing.a(Print.o)
 .text._ZN5Print7printlnEPK19__FlashStringHelper
                0x00000000       0x14 Builds/embeddedcomputing.a(Print.o)
 .rodata._ZTV5Print
                0x00000000       0x10 Builds/embeddedcomputing.a(Print.o)
 .rodata.str1.1
                0x00000000        0xe Builds/embeddedcomputing.a(Print.o)
 .group         0x00000000        0x8 Builds/embeddedcomputing.a(CDC.o)
 .text          0x00000000        0x0 Builds/embeddedcomputing.a(CDC.o)
 .data          0x00000000        0x0 Builds/embeddedcomputing.a(CDC.o)
 .bss           0x00000000        0x0 Builds/embeddedcomputing.a(CDC.o)
 .text._ZN7Serial_5beginEm
                0x00000000        0x2 Builds/embeddedcomputing.a(CDC.o)
 .text._ZN7Serial_5beginEmh
                0x00000000        0x2 Builds/embeddedcomputing.a(CDC.o)
 .text._ZN7Serial_3endEv
                0x00000000        0x2 Builds/embeddedcomputing.a(CDC.o)
 .text._ZN7Serial_cvbEv
                0x00000000       0x28 Builds/embeddedcomputing.a(CDC.o)
 .rodata._ZTV6Stream
                0x00000000       0x20 Builds/embeddedcomputing.a(CDC.o)
 .data._serialPeek
                0x00000000        0x4 Builds/embeddedcomputing.a(CDC.o)
 .text          0x00000000        0x0 Builds/embeddedcomputing.a(HID.o)
 .data          0x00000000        0x0 Builds/embeddedcomputing.a(HID.o)
 .bss           0x00000000        0x0 Builds/embeddedcomputing.a(HID.o)
 .text._ZN6Mouse_C2Ev
                0x00000000        0x6 Builds/embeddedcomputing.a(HID.o)
 .text._ZN6Mouse_5beginEv
                0x00000000        0x2 Builds/embeddedcomputing.a(HID.o)
 .text._ZN6Mouse_3endEv
                0x00000000        0x2 Builds/embeddedcomputing.a(HID.o)
 .text._ZN6Mouse_9isPressedEh
                0x00000000        0xc Builds/embeddedcomputing.a(HID.o)
 .text._ZN9Keyboard_C2Ev
                0x00000000       0x10 Builds/embeddedcomputing.a(HID.o)
 .text._ZN9Keyboard_5beginEv
                0x00000000        0x2 Builds/embeddedcomputing.a(HID.o)
 .text._ZN9Keyboard_3endEv
                0x00000000        0x2 Builds/embeddedcomputing.a(HID.o)
 .text._ZN6Mouse_4moveEaaa
                0x00000000       0x20 Builds/embeddedcomputing.a(HID.o)
 .text._ZN6Mouse_7buttonsEh
                0x00000000       0x14 Builds/embeddedcomputing.a(HID.o)
 .text._ZN6Mouse_7releaseEh
                0x00000000        0xa Builds/embeddedcomputing.a(HID.o)
 .text._ZN6Mouse_5pressEh
                0x00000000        0x8 Builds/embeddedcomputing.a(HID.o)
 .text._ZN6Mouse_5clickEh
                0x00000000       0x22 Builds/embeddedcomputing.a(HID.o)
 .text          0x00000000        0x0 /Applications/Arduino.app/Contents/Resources/Java/hardware/arduino/sam/variants/arduino_due_x/libsam_sam3x8e_gcc_rel.a(pwmc.o)
 .data          0x00000000        0x0 /Applications/Arduino.app/Contents/Resources/Java/hardware/arduino/sam/variants/arduino_due_x/libsam_sam3x8e_gcc_rel.a(pwmc.o)
 .bss           0x00000000        0x0 /Applications/Arduino.app/Contents/Resources/Java/hardware/arduino/sam/variants/arduino_due_x/libsam_sam3x8e_gcc_rel.a(pwmc.o)
 .text.FindClockConfiguration
                0x00000000       0x7c /Applications/Arduino.app/Contents/Resources/Java/hardware/arduino/sam/variants/arduino_due_x/libsam_sam3x8e_gcc_rel.a(pwmc.o)
 .text.PWMC_ConfigureChannel
                0x00000000       0x60 /Applications/Arduino.app/Contents/Resources/Java/hardware/arduino/sam/variants/arduino_due_x/libsam_sam3x8e_gcc_rel.a(pwmc.o)
 .text.PWMC_ConfigureChannelExt
                0x00000000       0xd4 /Applications/Arduino.app/Contents/Resources/Java/hardware/arduino/sam/variants/arduino_due_x/libsam_sam3x8e_gcc_rel.a(pwmc.o)
 .text.PWMC_ConfigureClocks
                0x00000000       0x54 /Applications/Arduino.app/Contents/Resources/Java/hardware/arduino/sam/variants/arduino_due_x/libsam_sam3x8e_gcc_rel.a(pwmc.o)
 .text.PWMC_SetPeriod
                0x00000000       0x1a /Applications/Arduino.app/Contents/Resources/Java/hardware/arduino/sam/variants/arduino_due_x/libsam_sam3x8e_gcc_rel.a(pwmc.o)
 .text.PWMC_SetDutyCycle
                0x00000000       0x48 /Applications/Arduino.app/Contents/Resources/Java/hardware/arduino/sam/variants/arduino_due_x/libsam_sam3x8e_gcc_rel.a(pwmc.o)
 .text.PWMC_SetDeadTime
                0x00000000       0x60 /Applications/Arduino.app/Contents/Resources/Java/hardware/arduino/sam/variants/arduino_due_x/libsam_sam3x8e_gcc_rel.a(pwmc.o)
 .text.PWMC_ConfigureSyncChannel
                0x00000000        0xc /Applications/Arduino.app/Contents/Resources/Java/hardware/arduino/sam/variants/arduino_due_x/libsam_sam3x8e_gcc_rel.a(pwmc.o)
 .text.PWMC_SetSyncChannelUpdatePeriod
                0x00000000        0xe /Applications/Arduino.app/Contents/Resources/Java/hardware/arduino/sam/variants/arduino_due_x/libsam_sam3x8e_gcc_rel.a(pwmc.o)
 .text.PWMC_SetSyncChannelUpdateUnlock
                0x00000000        0x6 /Applications/Arduino.app/Contents/Resources/Java/hardware/arduino/sam/variants/arduino_due_x/libsam_sam3x8e_gcc_rel.a(pwmc.o)
 .text.PWMC_EnableChannel
                0x00000000        0x8 /Applications/Arduino.app/Contents/Resources/Java/hardware/arduino/sam/variants/arduino_due_x/libsam_sam3x8e_gcc_rel.a(pwmc.o)
 .text.PWMC_DisableChannel
                0x00000000        0x8 /Applications/Arduino.app/Contents/Resources/Java/hardware/arduino/sam/variants/arduino_due_x/libsam_sam3x8e_gcc_rel.a(pwmc.o)
 .text.PWMC_EnableChannelIt
                0x00000000        0x8 /Applications/Arduino.app/Contents/Resources/Java/hardware/arduino/sam/variants/arduino_due_x/libsam_sam3x8e_gcc_rel.a(pwmc.o)
 .text.PWMC_DisableChannelIt
                0x00000000        0x8 /Applications/Arduino.app/Contents/Resources/Java/hardware/arduino/sam/variants/arduino_due_x/libsam_sam3x8e_gcc_rel.a(pwmc.o)
 .text.PWMC_EnableIt
                0x00000000        0x6 /Applications/Arduino.app/Contents/Resources/Java/hardware/arduino/sam/variants/arduino_due_x/libsam_sam3x8e_gcc_rel.a(pwmc.o)
 .text.PWMC_DisableIt
                0x00000000        0x6 /Applications/Arduino.app/Contents/Resources/Java/hardware/arduino/sam/variants/arduino_due_x/libsam_sam3x8e_gcc_rel.a(pwmc.o)
 .text.PWMC_WriteBuffer
                0x00000000       0x2e /Applications/Arduino.app/Contents/Resources/Java/hardware/arduino/sam/variants/arduino_due_x/libsam_sam3x8e_gcc_rel.a(pwmc.o)
 .text.PWMC_SetOverrideValue
                0x00000000        0x4 /Applications/Arduino.app/Contents/Resources/Java/hardware/arduino/sam/variants/arduino_due_x/libsam_sam3x8e_gcc_rel.a(pwmc.o)
 .text.PWMC_EnableOverrideOutput
                0x00000000        0xa /Applications/Arduino.app/Contents/Resources/Java/hardware/arduino/sam/variants/arduino_due_x/libsam_sam3x8e_gcc_rel.a(pwmc.o)
 .text.PWMC_DisableOverrideOutput
                0x00000000        0xa /Applications/Arduino.app/Contents/Resources/Java/hardware/arduino/sam/variants/arduino_due_x/libsam_sam3x8e_gcc_rel.a(pwmc.o)
 .text.PWMC_SetFaultMode
                0x00000000        0x4 /Applications/Arduino.app/Contents/Resources/Java/hardware/arduino/sam/variants/arduino_due_x/libsam_sam3x8e_gcc_rel.a(pwmc.o)
 .text.PWMC_FaultClear
                0x00000000        0x4 /Applications/Arduino.app/Contents/Resources/Java/hardware/arduino/sam/variants/arduino_due_x/libsam_sam3x8e_gcc_rel.a(pwmc.o)
 .text.PWMC_SetFaultProtectionValue
                0x00000000        0x4 /Applications/Arduino.app/Contents/Resources/Java/hardware/arduino/sam/variants/arduino_due_x/libsam_sam3x8e_gcc_rel.a(pwmc.o)
 .text.PWMC_EnableFaultProtection
                0x00000000       0x36 /Applications/Arduino.app/Contents/Resources/Java/hardware/arduino/sam/variants/arduino_due_x/libsam_sam3x8e_gcc_rel.a(pwmc.o)
 .text.PWMC_ConfigureComparisonUnit
                0x00000000       0x50 /Applications/Arduino.app/Contents/Resources/Java/hardware/arduino/sam/variants/arduino_due_x/libsam_sam3x8e_gcc_rel.a(pwmc.o)
 .text.PWMC_ConfigureEventLineMode
                0x00000000       0x30 /Applications/Arduino.app/Contents/Resources/Java/hardware/arduino/sam/variants/arduino_due_x/libsam_sam3x8e_gcc_rel.a(pwmc.o)
 .rodata.__func__.6770
                0x00000000       0x1d /Applications/Arduino.app/Contents/Resources/Java/hardware/arduino/sam/variants/arduino_due_x/libsam_sam3x8e_gcc_rel.a(pwmc.o)
 .rodata.__func__.6657
                0x00000000       0x19 /Applications/Arduino.app/Contents/Resources/Java/hardware/arduino/sam/variants/arduino_due_x/libsam_sam3x8e_gcc_rel.a(pwmc.o)
 .rodata.__func__.6776
                0x00000000       0x1c /Applications/Arduino.app/Contents/Resources/Java/hardware/arduino/sam/variants/arduino_due_x/libsam_sam3x8e_gcc_rel.a(pwmc.o)
 .rodata.__func__.6668
                0x00000000       0x15 /Applications/Arduino.app/Contents/Resources/Java/hardware/arduino/sam/variants/arduino_due_x/libsam_sam3x8e_gcc_rel.a(pwmc.o)
 .rodata.str1.1
                0x00000000      0x1cc /Applications/Arduino.app/Contents/Resources/Java/hardware/arduino/sam/variants/arduino_due_x/libsam_sam3x8e_gcc_rel.a(pwmc.o)
 .rodata.__func__.6679
                0x00000000       0x12 /Applications/Arduino.app/Contents/Resources/Java/hardware/arduino/sam/variants/arduino_due_x/libsam_sam3x8e_gcc_rel.a(pwmc.o)
 .rodata.__func__.6686
                0x00000000       0x11 /Applications/Arduino.app/Contents/Resources/Java/hardware/arduino/sam/variants/arduino_due_x/libsam_sam3x8e_gcc_rel.a(pwmc.o)
 .rodata.__func__.6631
                0x00000000       0x17 /Applications/Arduino.app/Contents/Resources/Java/hardware/arduino/sam/variants/arduino_due_x/libsam_sam3x8e_gcc_rel.a(pwmc.o)
 .rodata.C.9.8049
                0x00000000       0x2c /Applications/Arduino.app/Contents/Resources/Java/hardware/arduino/sam/variants/arduino_due_x/libsam_sam3x8e_gcc_rel.a(pwmc.o)
 .rodata.__func__.6642
                0x00000000       0x16 /Applications/Arduino.app/Contents/Resources/Java/hardware/arduino/sam/variants/arduino_due_x/libsam_sam3x8e_gcc_rel.a(pwmc.o)
 .text          0x00000000        0x0 /Applications/Arduino.app/Contents/Resources/Java/hardware/arduino/sam/variants/arduino_due_x/libsam_sam3x8e_gcc_rel.a(tc.o)
 .data          0x00000000        0x0 /Applications/Arduino.app/Contents/Resources/Java/hardware/arduino/sam/variants/arduino_due_x/libsam_sam3x8e_gcc_rel.a(tc.o)
 .bss           0x00000000        0x0 /Applications/Arduino.app/Contents/Resources/Java/hardware/arduino/sam/variants/arduino_due_x/libsam_sam3x8e_gcc_rel.a(tc.o)
 .text.TC_Configure
                0x00000000       0x38 /Applications/Arduino.app/Contents/Resources/Java/hardware/arduino/sam/variants/arduino_due_x/libsam_sam3x8e_gcc_rel.a(tc.o)
 .text.TC_Start
                0x00000000       0x2c /Applications/Arduino.app/Contents/Resources/Java/hardware/arduino/sam/variants/arduino_due_x/libsam_sam3x8e_gcc_rel.a(tc.o)
 .text.TC_Stop  0x00000000       0x2c /Applications/Arduino.app/Contents/Resources/Java/hardware/arduino/sam/variants/arduino_due_x/libsam_sam3x8e_gcc_rel.a(tc.o)
 .text.TC_FindMckDivisor
                0x00000000       0x6e /Applications/Arduino.app/Contents/Resources/Java/hardware/arduino/sam/variants/arduino_due_x/libsam_sam3x8e_gcc_rel.a(tc.o)
 .text.TC_ReadCV
                0x00000000        0x8 /Applications/Arduino.app/Contents/Resources/Java/hardware/arduino/sam/variants/arduino_due_x/libsam_sam3x8e_gcc_rel.a(tc.o)
 .text.TC_GetStatus
                0x00000000        0x8 /Applications/Arduino.app/Contents/Resources/Java/hardware/arduino/sam/variants/arduino_due_x/libsam_sam3x8e_gcc_rel.a(tc.o)
 .text.TC_SetRA
                0x00000000        0x8 /Applications/Arduino.app/Contents/Resources/Java/hardware/arduino/sam/variants/arduino_due_x/libsam_sam3x8e_gcc_rel.a(tc.o)
 .text.TC_SetRB
                0x00000000        0x8 /Applications/Arduino.app/Contents/Resources/Java/hardware/arduino/sam/variants/arduino_due_x/libsam_sam3x8e_gcc_rel.a(tc.o)
 .text.TC_SetRC
                0x00000000        0x8 /Applications/Arduino.app/Contents/Resources/Java/hardware/arduino/sam/variants/arduino_due_x/libsam_sam3x8e_gcc_rel.a(tc.o)
 .rodata.str1.1
                0x00000000       0x54 /Applications/Arduino.app/Contents/Resources/Java/hardware/arduino/sam/variants/arduino_due_x/libsam_sam3x8e_gcc_rel.a(tc.o)
 .rodata.__func__.6630
                0x00000000        0xd /Applications/Arduino.app/Contents/Resources/Java/hardware/arduino/sam/variants/arduino_due_x/libsam_sam3x8e_gcc_rel.a(tc.o)
 .rodata.__func__.6636
                0x00000000        0x9 /Applications/Arduino.app/Contents/Resources/Java/hardware/arduino/sam/variants/arduino_due_x/libsam_sam3x8e_gcc_rel.a(tc.o)
 .rodata.__func__.6642
                0x00000000        0x8 /Applications/Arduino.app/Contents/Resources/Java/hardware/arduino/sam/variants/arduino_due_x/libsam_sam3x8e_gcc_rel.a(tc.o)
 .text          0x00000000        0x0 /Applications/Arduino.app/Contents/Resources/Java/hardware/arduino/sam/variants/arduino_due_x/libsam_sam3x8e_gcc_rel.a(timetick.o)
 .data          0x00000000        0x0 /Applications/Arduino.app/Contents/Resources/Java/hardware/arduino/sam/variants/arduino_due_x/libsam_sam3x8e_gcc_rel.a(timetick.o)
 .bss           0x00000000        0x0 /Applications/Arduino.app/Contents/Resources/Java/hardware/arduino/sam/variants/arduino_due_x/libsam_sam3x8e_gcc_rel.a(timetick.o)
 .text.TimeTick_Configure
                0x00000000       0x38 /Applications/Arduino.app/Contents/Resources/Java/hardware/arduino/sam/variants/arduino_due_x/libsam_sam3x8e_gcc_rel.a(timetick.o)
 .text.Wait     0x00000000       0x1c /Applications/Arduino.app/Contents/Resources/Java/hardware/arduino/sam/variants/arduino_due_x/libsam_sam3x8e_gcc_rel.a(timetick.o)
 .text.Sleep    0x00000000       0x20 /Applications/Arduino.app/Contents/Resources/Java/hardware/arduino/sam/variants/arduino_due_x/libsam_sam3x8e_gcc_rel.a(timetick.o)
 .text          0x00000000        0x0 /Applications/Arduino.app/Contents/Resources/Java/hardware/arduino/sam/variants/arduino_due_x/libsam_sam3x8e_gcc_rel.a(interrupt_sam_nvic.o)
 .data          0x00000000        0x0 /Applications/Arduino.app/Contents/Resources/Java/hardware/arduino/sam/variants/arduino_due_x/libsam_sam3x8e_gcc_rel.a(interrupt_sam_nvic.o)
 .bss           0x00000000        0x0 /Applications/Arduino.app/Contents/Resources/Java/hardware/arduino/sam/variants/arduino_due_x/libsam_sam3x8e_gcc_rel.a(interrupt_sam_nvic.o)
 .text          0x00000000        0x0 /Applications/Arduino.app/Contents/Resources/Java/hardware/arduino/sam/variants/arduino_due_x/libsam_sam3x8e_gcc_rel.a(uotghs_device.o)
 .data          0x00000000        0x0 /Applications/Arduino.app/Contents/Resources/Java/hardware/arduino/sam/variants/arduino_due_x/libsam_sam3x8e_gcc_rel.a(uotghs_device.o)
 .bss           0x00000000        0x0 /Applications/Arduino.app/Contents/Resources/Java/hardware/arduino/sam/variants/arduino_due_x/libsam_sam3x8e_gcc_rel.a(uotghs_device.o)
 .text.UDD_Detach
                0x00000000       0x10 /Applications/Arduino.app/Contents/Resources/Java/hardware/arduino/sam/variants/arduino_due_x/libsam_sam3x8e_gcc_rel.a(uotghs_device.o)
 .text.UDD_WaitForINOrOUT
                0x00000000       0x24 /Applications/Arduino.app/Contents/Resources/Java/hardware/arduino/sam/variants/arduino_due_x/libsam_sam3x8e_gcc_rel.a(uotghs_device.o)
 .text.UDD_ReadWriteAllowed
                0x00000000       0x14 /Applications/Arduino.app/Contents/Resources/Java/hardware/arduino/sam/variants/arduino_due_x/libsam_sam3x8e_gcc_rel.a(uotghs_device.o)
 .text.UDD_GetFrameNumber
                0x00000000       0x14 /Applications/Arduino.app/Contents/Resources/Java/hardware/arduino/sam/variants/arduino_due_x/libsam_sam3x8e_gcc_rel.a(uotghs_device.o)
 .text          0x00000000        0x0 /Applications/Arduino.app/Contents/Resources/Java/hardware/arduino/sam/variants/arduino_due_x/libsam_sam3x8e_gcc_rel.a(dacc.o)
 .data          0x00000000        0x0 /Applications/Arduino.app/Contents/Resources/Java/hardware/arduino/sam/variants/arduino_due_x/libsam_sam3x8e_gcc_rel.a(dacc.o)
 .bss           0x00000000        0x0 /Applications/Arduino.app/Contents/Resources/Java/hardware/arduino/sam/variants/arduino_due_x/libsam_sam3x8e_gcc_rel.a(dacc.o)
 .text.dacc_reset
                0x00000000        0x6 /Applications/Arduino.app/Contents/Resources/Java/hardware/arduino/sam/variants/arduino_due_x/libsam_sam3x8e_gcc_rel.a(dacc.o)
 .text.dacc_set_trigger
                0x00000000       0x18 /Applications/Arduino.app/Contents/Resources/Java/hardware/arduino/sam/variants/arduino_due_x/libsam_sam3x8e_gcc_rel.a(dacc.o)
 .text.dacc_disable_trigger
                0x00000000        0xa /Applications/Arduino.app/Contents/Resources/Java/hardware/arduino/sam/variants/arduino_due_x/libsam_sam3x8e_gcc_rel.a(dacc.o)
 .text.dacc_set_transfer_mode
                0x00000000       0x16 /Applications/Arduino.app/Contents/Resources/Java/hardware/arduino/sam/variants/arduino_due_x/libsam_sam3x8e_gcc_rel.a(dacc.o)
 .text.dacc_enable_interrupt
                0x00000000        0x4 /Applications/Arduino.app/Contents/Resources/Java/hardware/arduino/sam/variants/arduino_due_x/libsam_sam3x8e_gcc_rel.a(dacc.o)
 .text.dacc_disable_interrupt
                0x00000000        0x4 /Applications/Arduino.app/Contents/Resources/Java/hardware/arduino/sam/variants/arduino_due_x/libsam_sam3x8e_gcc_rel.a(dacc.o)
 .text.dacc_get_interrupt_mask
                0x00000000        0x4 /Applications/Arduino.app/Contents/Resources/Java/hardware/arduino/sam/variants/arduino_due_x/libsam_sam3x8e_gcc_rel.a(dacc.o)
 .text.dacc_get_interrupt_status
                0x00000000        0x4 /Applications/Arduino.app/Contents/Resources/Java/hardware/arduino/sam/variants/arduino_due_x/libsam_sam3x8e_gcc_rel.a(dacc.o)
 .text.dacc_write_conversion_data
                0x00000000        0x4 /Applications/Arduino.app/Contents/Resources/Java/hardware/arduino/sam/variants/arduino_due_x/libsam_sam3x8e_gcc_rel.a(dacc.o)
 .text.dacc_set_writeprotect
                0x00000000       0x18 /Applications/Arduino.app/Contents/Resources/Java/hardware/arduino/sam/variants/arduino_due_x/libsam_sam3x8e_gcc_rel.a(dacc.o)
 .text.dacc_get_writeprotect_status
                0x00000000        0x6 /Applications/Arduino.app/Contents/Resources/Java/hardware/arduino/sam/variants/arduino_due_x/libsam_sam3x8e_gcc_rel.a(dacc.o)
 .text.dacc_get_pdc_base
                0x00000000        0x8 /Applications/Arduino.app/Contents/Resources/Java/hardware/arduino/sam/variants/arduino_due_x/libsam_sam3x8e_gcc_rel.a(dacc.o)
 .text.dacc_set_channel_selection
                0x00000000       0x18 /Applications/Arduino.app/Contents/Resources/Java/hardware/arduino/sam/variants/arduino_due_x/libsam_sam3x8e_gcc_rel.a(dacc.o)
 .text.dacc_enable_flexible_selection
                0x00000000        0xa /Applications/Arduino.app/Contents/Resources/Java/hardware/arduino/sam/variants/arduino_due_x/libsam_sam3x8e_gcc_rel.a(dacc.o)
 .text.dacc_set_power_save
                0x00000000       0x28 /Applications/Arduino.app/Contents/Resources/Java/hardware/arduino/sam/variants/arduino_due_x/libsam_sam3x8e_gcc_rel.a(dacc.o)
 .text.dacc_set_timing
                0x00000000       0x30 /Applications/Arduino.app/Contents/Resources/Java/hardware/arduino/sam/variants/arduino_due_x/libsam_sam3x8e_gcc_rel.a(dacc.o)
 .text.dacc_enable_channel
                0x00000000       0x14 /Applications/Arduino.app/Contents/Resources/Java/hardware/arduino/sam/variants/arduino_due_x/libsam_sam3x8e_gcc_rel.a(dacc.o)
 .text.dacc_disable_channel
                0x00000000       0x14 /Applications/Arduino.app/Contents/Resources/Java/hardware/arduino/sam/variants/arduino_due_x/libsam_sam3x8e_gcc_rel.a(dacc.o)
 .text.dacc_get_channel_status
                0x00000000        0x4 /Applications/Arduino.app/Contents/Resources/Java/hardware/arduino/sam/variants/arduino_due_x/libsam_sam3x8e_gcc_rel.a(dacc.o)
 .text.dacc_set_analog_control
                0x00000000        0x8 /Applications/Arduino.app/Contents/Resources/Java/hardware/arduino/sam/variants/arduino_due_x/libsam_sam3x8e_gcc_rel.a(dacc.o)
 .text.dacc_get_analog_control
                0x00000000        0x6 /Applications/Arduino.app/Contents/Resources/Java/hardware/arduino/sam/variants/arduino_due_x/libsam_sam3x8e_gcc_rel.a(dacc.o)
 .text          0x00000000        0x0 /Applications/Arduino.app/Contents/Resources/Java/hardware/tools/g++_arm_none_eabi/bin/../lib/gcc/arm-none-eabi/4.4.1/../../../../arm-none-eabi/lib/thumb2/libm.a(lib_a-s_isinfd.o)
 .data          0x00000000        0x0 /Applications/Arduino.app/Contents/Resources/Java/hardware/tools/g++_arm_none_eabi/bin/../lib/gcc/arm-none-eabi/4.4.1/../../../../arm-none-eabi/lib/thumb2/libm.a(lib_a-s_isinfd.o)
 .bss           0x00000000        0x0 /Applications/Arduino.app/Contents/Resources/Java/hardware/tools/g++_arm_none_eabi/bin/../lib/gcc/arm-none-eabi/4.4.1/../../../../arm-none-eabi/lib/thumb2/libm.a(lib_a-s_isinfd.o)
 .text.__isinfd
                0x00000000       0x22 /Applications/Arduino.app/Contents/Resources/Java/hardware/tools/g++_arm_none_eabi/bin/../lib/gcc/arm-none-eabi/4.4.1/../../../../arm-none-eabi/lib/thumb2/libm.a(lib_a-s_isinfd.o)
 .text          0x00000000        0x0 /Applications/Arduino.app/Contents/Resources/Java/hardware/tools/g++_arm_none_eabi/bin/../lib/gcc/arm-none-eabi/4.4.1/../../../../arm-none-eabi/lib/thumb2/libm.a(lib_a-s_isnand.o)
 .data          0x00000000        0x0 /Applications/Arduino.app/Contents/Resources/Java/hardware/tools/g++_arm_none_eabi/bin/../lib/gcc/arm-none-eabi/4.4.1/../../../../arm-none-eabi/lib/thumb2/libm.a(lib_a-s_isnand.o)
 .bss           0x00000000        0x0 /Applications/Arduino.app/Contents/Resources/Java/hardware/tools/g++_arm_none_eabi/bin/../lib/gcc/arm-none-eabi/4.4.1/../../../../arm-none-eabi/lib/thumb2/libm.a(lib_a-s_isnand.o)
 .text.__isnand
                0x00000000       0x1a /Applications/Arduino.app/Contents/Resources/Java/hardware/tools/g++_arm_none_eabi/bin/../lib/gcc/arm-none-eabi/4.4.1/../../../../arm-none-eabi/lib/thumb2/libm.a(lib_a-s_isnand.o)
 .text          0x00000000      0x370 /Applications/Arduino.app/Contents/Resources/Java/hardware/tools/g++_arm_none_eabi/bin/../lib/gcc/arm-none-eabi/4.4.1/thumb2/libgcc.a(_arm_addsubdf3.o)
 .data          0x00000000        0x0 /Applications/Arduino.app/Contents/Resources/Java/hardware/tools/g++_arm_none_eabi/bin/../lib/gcc/arm-none-eabi/4.4.1/thumb2/libgcc.a(_arm_addsubdf3.o)
 .bss           0x00000000        0x0 /Applications/Arduino.app/Contents/Resources/Java/hardware/tools/g++_arm_none_eabi/bin/../lib/gcc/arm-none-eabi/4.4.1/thumb2/libgcc.a(_arm_addsubdf3.o)
 .text          0x00000000      0x424 /Applications/Arduino.app/Contents/Resources/Java/hardware/tools/g++_arm_none_eabi/bin/../lib/gcc/arm-none-eabi/4.4.1/thumb2/libgcc.a(_arm_muldivdf3.o)
 .data          0x00000000        0x0 /Applications/Arduino.app/Contents/Resources/Java/hardware/tools/g++_arm_none_eabi/bin/../lib/gcc/arm-none-eabi/4.4.1/thumb2/libgcc.a(_arm_muldivdf3.o)
 .bss           0x00000000        0x0 /Applications/Arduino.app/Contents/Resources/Java/hardware/tools/g++_arm_none_eabi/bin/../lib/gcc/arm-none-eabi/4.4.1/thumb2/libgcc.a(_arm_muldivdf3.o)
 .text          0x00000000      0x110 /Applications/Arduino.app/Contents/Resources/Java/hardware/tools/g++_arm_none_eabi/bin/../lib/gcc/arm-none-eabi/4.4.1/thumb2/libgcc.a(_arm_cmpdf2.o)
 .data          0x00000000        0x0 /Applications/Arduino.app/Contents/Resources/Java/hardware/tools/g++_arm_none_eabi/bin/../lib/gcc/arm-none-eabi/4.4.1/thumb2/libgcc.a(_arm_cmpdf2.o)
 .bss           0x00000000        0x0 /Applications/Arduino.app/Contents/Resources/Java/hardware/tools/g++_arm_none_eabi/bin/../lib/gcc/arm-none-eabi/4.4.1/thumb2/libgcc.a(_arm_cmpdf2.o)
 .text          0x00000000       0x50 /Applications/Arduino.app/Contents/Resources/Java/hardware/tools/g++_arm_none_eabi/bin/../lib/gcc/arm-none-eabi/4.4.1/thumb2/libgcc.a(_arm_fixdfsi.o)
 .data          0x00000000        0x0 /Applications/Arduino.app/Contents/Resources/Java/hardware/tools/g++_arm_none_eabi/bin/../lib/gcc/arm-none-eabi/4.4.1/thumb2/libgcc.a(_arm_fixdfsi.o)
 .bss           0x00000000        0x0 /Applications/Arduino.app/Contents/Resources/Java/hardware/tools/g++_arm_none_eabi/bin/../lib/gcc/arm-none-eabi/4.4.1/thumb2/libgcc.a(_arm_fixdfsi.o)
 .text          0x00000000       0x40 /Applications/Arduino.app/Contents/Resources/Java/hardware/tools/g++_arm_none_eabi/bin/../lib/gcc/arm-none-eabi/4.4.1/thumb2/libgcc.a(_arm_fixunsdfsi.o)
 .data          0x00000000        0x0 /Applications/Arduino.app/Contents/Resources/Java/hardware/tools/g++_arm_none_eabi/bin/../lib/gcc/arm-none-eabi/4.4.1/thumb2/libgcc.a(_arm_fixunsdfsi.o)
 .bss           0x00000000        0x0 /Applications/Arduino.app/Contents/Resources/Java/hardware/tools/g++_arm_none_eabi/bin/../lib/gcc/arm-none-eabi/4.4.1/thumb2/libgcc.a(_arm_fixunsdfsi.o)
 .text          0x00000000        0x0 /Applications/Arduino.app/Contents/Resources/Java/hardware/tools/g++_arm_none_eabi/bin/../lib/gcc/arm-none-eabi/4.4.1/../../../../arm-none-eabi/lib/thumb2/libc.a(lib_a-assert.o)
 .data          0x00000000        0x0 /Applications/Arduino.app/Contents/Resources/Java/hardware/tools/g++_arm_none_eabi/bin/../lib/gcc/arm-none-eabi/4.4.1/../../../../arm-none-eabi/lib/thumb2/libc.a(lib_a-assert.o)
 .bss           0x00000000        0x0 /Applications/Arduino.app/Contents/Resources/Java/hardware/tools/g++_arm_none_eabi/bin/../lib/gcc/arm-none-eabi/4.4.1/../../../../arm-none-eabi/lib/thumb2/libc.a(lib_a-assert.o)
 .text.__assert_func
                0x00000000       0x3c /Applications/Arduino.app/Contents/Resources/Java/hardware/tools/g++_arm_none_eabi/bin/../lib/gcc/arm-none-eabi/4.4.1/../../../../arm-none-eabi/lib/thumb2/libc.a(lib_a-assert.o)
 .text.__assert
                0x00000000        0xa /Applications/Arduino.app/Contents/Resources/Java/hardware/tools/g++_arm_none_eabi/bin/../lib/gcc/arm-none-eabi/4.4.1/../../../../arm-none-eabi/lib/thumb2/libc.a(lib_a-assert.o)
 .rodata.str1.1
                0x00000000       0x3d /Applications/Arduino.app/Contents/Resources/Java/hardware/tools/g++_arm_none_eabi/bin/../lib/gcc/arm-none-eabi/4.4.1/../../../../arm-none-eabi/lib/thumb2/libc.a(lib_a-assert.o)
 .text          0x00000000        0x0 /Applications/Arduino.app/Contents/Resources/Java/hardware/tools/g++_arm_none_eabi/bin/../lib/gcc/arm-none-eabi/4.4.1/../../../../arm-none-eabi/lib/thumb2/libc.a(lib_a-fiprintf.o)
 .data          0x00000000        0x0 /Applications/Arduino.app/Contents/Resources/Java/hardware/tools/g++_arm_none_eabi/bin/../lib/gcc/arm-none-eabi/4.4.1/../../../../arm-none-eabi/lib/thumb2/libc.a(lib_a-fiprintf.o)
 .bss           0x00000000        0x0 /Applications/Arduino.app/Contents/Resources/Java/hardware/tools/g++_arm_none_eabi/bin/../lib/gcc/arm-none-eabi/4.4.1/../../../../arm-none-eabi/lib/thumb2/libc.a(lib_a-fiprintf.o)
 .text.fiprintf
                0x00000000       0x24 /Applications/Arduino.app/Contents/Resources/Java/hardware/tools/g++_arm_none_eabi/bin/../lib/gcc/arm-none-eabi/4.4.1/../../../../arm-none-eabi/lib/thumb2/libc.a(lib_a-fiprintf.o)
 .text._fiprintf_r
                0x00000000       0x18 /Applications/Arduino.app/Contents/Resources/Java/hardware/tools/g++_arm_none_eabi/bin/../lib/gcc/arm-none-eabi/4.4.1/../../../../arm-none-eabi/lib/thumb2/libc.a(lib_a-fiprintf.o)
 .text          0x00000000        0x0 /Applications/Arduino.app/Contents/Resources/Java/hardware/tools/g++_arm_none_eabi/bin/../lib/gcc/arm-none-eabi/4.4.1/../../../../arm-none-eabi/lib/thumb2/libc.a(lib_a-impure.o)
 .data          0x00000000        0x0 /Applications/Arduino.app/Contents/Resources/Java/hardware/tools/g++_arm_none_eabi/bin/../lib/gcc/arm-none-eabi/4.4.1/../../../../arm-none-eabi/lib/thumb2/libc.a(lib_a-impure.o)
 .bss           0x00000000        0x0 /Applications/Arduino.app/Contents/Resources/Java/hardware/tools/g++_arm_none_eabi/bin/../lib/gcc/arm-none-eabi/4.4.1/../../../../arm-none-eabi/lib/thumb2/libc.a(lib_a-impure.o)
 .data.impure_data
                0x00000000       0xf0 /Applications/Arduino.app/Contents/Resources/Java/hardware/tools/g++_arm_none_eabi/bin/../lib/gcc/arm-none-eabi/4.4.1/../../../../arm-none-eabi/lib/thumb2/libc.a(lib_a-impure.o)
 .data._impure_ptr
                0x00000000        0x4 /Applications/Arduino.app/Contents/Resources/Java/hardware/tools/g++_arm_none_eabi/bin/../lib/gcc/arm-none-eabi/4.4.1/../../../../arm-none-eabi/lib/thumb2/libc.a(lib_a-impure.o)
 .rodata.str1.1
                0x00000000        0x2 /Applications/Arduino.app/Contents/Resources/Java/hardware/tools/g++_arm_none_eabi/bin/../lib/gcc/arm-none-eabi/4.4.1/../../../../arm-none-eabi/lib/thumb2/libc.a(lib_a-impure.o)
 .rodata._global_impure_ptr
                0x00000000        0x4 /Applications/Arduino.app/Contents/Resources/Java/hardware/tools/g++_arm_none_eabi/bin/../lib/gcc/arm-none-eabi/4.4.1/../../../../arm-none-eabi/lib/thumb2/libc.a(lib_a-impure.o)
 .text          0x00000000        0x0 /Applications/Arduino.app/Contents/Resources/Java/hardware/tools/g++_arm_none_eabi/bin/../lib/gcc/arm-none-eabi/4.4.1/../../../../arm-none-eabi/lib/thumb2/libc.a(lib_a-init.o)
 .data          0x00000000        0x0 /Applications/Arduino.app/Contents/Resources/Java/hardware/tools/g++_arm_none_eabi/bin/../lib/gcc/arm-none-eabi/4.4.1/../../../../arm-none-eabi/lib/thumb2/libc.a(lib_a-init.o)
 .bss           0x00000000        0x0 /Applications/Arduino.app/Contents/Resources/Java/hardware/tools/g++_arm_none_eabi/bin/../lib/gcc/arm-none-eabi/4.4.1/../../../../arm-none-eabi/lib/thumb2/libc.a(lib_a-init.o)
 .text          0x00000000        0x0 /Applications/Arduino.app/Contents/Resources/Java/hardware/tools/g++_arm_none_eabi/bin/../lib/gcc/arm-none-eabi/4.4.1/../../../../arm-none-eabi/lib/thumb2/libc.a(lib_a-iprintf.o)
 .data          0x00000000        0x0 /Applications/Arduino.app/Contents/Resources/Java/hardware/tools/g++_arm_none_eabi/bin/../lib/gcc/arm-none-eabi/4.4.1/../../../../arm-none-eabi/lib/thumb2/libc.a(lib_a-iprintf.o)
 .bss           0x00000000        0x0 /Applications/Arduino.app/Contents/Resources/Java/hardware/tools/g++_arm_none_eabi/bin/../lib/gcc/arm-none-eabi/4.4.1/../../../../arm-none-eabi/lib/thumb2/libc.a(lib_a-iprintf.o)
 .text._iprintf_r
                0x00000000       0x26 /Applications/Arduino.app/Contents/Resources/Java/hardware/tools/g++_arm_none_eabi/bin/../lib/gcc/arm-none-eabi/4.4.1/../../../../arm-none-eabi/lib/thumb2/libc.a(lib_a-iprintf.o)
 .text.iprintf  0x00000000       0x30 /Applications/Arduino.app/Contents/Resources/Java/hardware/tools/g++_arm_none_eabi/bin/../lib/gcc/arm-none-eabi/4.4.1/../../../../arm-none-eabi/lib/thumb2/libc.a(lib_a-iprintf.o)
 .text          0x00000000        0x0 /Applications/Arduino.app/Contents/Resources/Java/hardware/tools/g++_arm_none_eabi/bin/../lib/gcc/arm-none-eabi/4.4.1/../../../../arm-none-eabi/lib/thumb2/libc.a(lib_a-memset.o)
 .data          0x00000000        0x0 /Applications/Arduino.app/Contents/Resources/Java/hardware/tools/g++_arm_none_eabi/bin/../lib/gcc/arm-none-eabi/4.4.1/../../../../arm-none-eabi/lib/thumb2/libc.a(lib_a-memset.o)
 .bss           0x00000000        0x0 /Applications/Arduino.app/Contents/Resources/Java/hardware/tools/g++_arm_none_eabi/bin/../lib/gcc/arm-none-eabi/4.4.1/../../../../arm-none-eabi/lib/thumb2/libc.a(lib_a-memset.o)
 .text          0x00000000        0x0 /Applications/Arduino.app/Contents/Resources/Java/hardware/tools/g++_arm_none_eabi/bin/../lib/gcc/arm-none-eabi/4.4.1/../../../../arm-none-eabi/lib/thumb2/libc.a(lib_a-strlen.o)
 .data          0x00000000        0x0 /Applications/Arduino.app/Contents/Resources/Java/hardware/tools/g++_arm_none_eabi/bin/../lib/gcc/arm-none-eabi/4.4.1/../../../../arm-none-eabi/lib/thumb2/libc.a(lib_a-strlen.o)
 .bss           0x00000000        0x0 /Applications/Arduino.app/Contents/Resources/Java/hardware/tools/g++_arm_none_eabi/bin/../lib/gcc/arm-none-eabi/4.4.1/../../../../arm-none-eabi/lib/thumb2/libc.a(lib_a-strlen.o)
 .text.strlen   0x00000000       0x10 /Applications/Arduino.app/Contents/Resources/Java/hardware/tools/g++_arm_none_eabi/bin/../lib/gcc/arm-none-eabi/4.4.1/../../../../arm-none-eabi/lib/thumb2/libc.a(lib_a-strlen.o)
 .text          0x00000000        0x0 /Applications/Arduino.app/Contents/Resources/Java/hardware/tools/g++_arm_none_eabi/bin/../lib/gcc/arm-none-eabi/4.4.1/../../../../arm-none-eabi/lib/thumb2/libc.a(lib_a-vfiprintf.o)
 .data          0x00000000        0x0 /Applications/Arduino.app/Contents/Resources/Java/hardware/tools/g++_arm_none_eabi/bin/../lib/gcc/arm-none-eabi/4.4.1/../../../../arm-none-eabi/lib/thumb2/libc.a(lib_a-vfiprintf.o)
 .bss           0x00000000        0x0 /Applications/Arduino.app/Contents/Resources/Java/hardware/tools/g++_arm_none_eabi/bin/../lib/gcc/arm-none-eabi/4.4.1/../../../../arm-none-eabi/lib/thumb2/libc.a(lib_a-vfiprintf.o)
 .text.__sprint_r
                0x00000000       0x1a /Applications/Arduino.app/Contents/Resources/Java/hardware/tools/g++_arm_none_eabi/bin/../lib/gcc/arm-none-eabi/4.4.1/../../../../arm-none-eabi/lib/thumb2/libc.a(lib_a-vfiprintf.o)
 .text._vfiprintf_r
                0x00000000      0x838 /Applications/Arduino.app/Contents/Resources/Java/hardware/tools/g++_arm_none_eabi/bin/../lib/gcc/arm-none-eabi/4.4.1/../../../../arm-none-eabi/lib/thumb2/libc.a(lib_a-vfiprintf.o)
 .text.vfiprintf
                0x00000000       0x1c /Applications/Arduino.app/Contents/Resources/Java/hardware/tools/g++_arm_none_eabi/bin/../lib/gcc/arm-none-eabi/4.4.1/../../../../arm-none-eabi/lib/thumb2/libc.a(lib_a-vfiprintf.o)
 .rodata.blanks.3515
                0x00000000       0x10 /Applications/Arduino.app/Contents/Resources/Java/hardware/tools/g++_arm_none_eabi/bin/../lib/gcc/arm-none-eabi/4.4.1/../../../../arm-none-eabi/lib/thumb2/libc.a(lib_a-vfiprintf.o)
 .rodata.str1.1
                0x00000000       0x22 /Applications/Arduino.app/Contents/Resources/Java/hardware/tools/g++_arm_none_eabi/bin/../lib/gcc/arm-none-eabi/4.4.1/../../../../arm-none-eabi/lib/thumb2/libc.a(lib_a-vfiprintf.o)
 .rodata.zeroes.3516
                0x00000000       0x10 /Applications/Arduino.app/Contents/Resources/Java/hardware/tools/g++_arm_none_eabi/bin/../lib/gcc/arm-none-eabi/4.4.1/../../../../arm-none-eabi/lib/thumb2/libc.a(lib_a-vfiprintf.o)
 .text          0x00000000        0x0 /Applications/Arduino.app/Contents/Resources/Java/hardware/tools/g++_arm_none_eabi/bin/../lib/gcc/arm-none-eabi/4.4.1/../../../../arm-none-eabi/lib/thumb2/libc.a(lib_a-wsetup.o)
 .data          0x00000000        0x0 /Applications/Arduino.app/Contents/Resources/Java/hardware/tools/g++_arm_none_eabi/bin/../lib/gcc/arm-none-eabi/4.4.1/../../../../arm-none-eabi/lib/thumb2/libc.a(lib_a-wsetup.o)
 .bss           0x00000000        0x0 /Applications/Arduino.app/Contents/Resources/Java/hardware/tools/g++_arm_none_eabi/bin/../lib/gcc/arm-none-eabi/4.4.1/../../../../arm-none-eabi/lib/thumb2/libc.a(lib_a-wsetup.o)
 .text.__swsetup_r
                0x00000000       0xdc /Applications/Arduino.app/Contents/Resources/Java/hardware/tools/g++_arm_none_eabi/bin/../lib/gcc/arm-none-eabi/4.4.1/../../../../arm-none-eabi/lib/thumb2/libc.a(lib_a-wsetup.o)
 .text          0x00000000        0x0 /Applications/Arduino.app/Contents/Resources/Java/hardware/tools/g++_arm_none_eabi/bin/../lib/gcc/arm-none-eabi/4.4.1/../../../../arm-none-eabi/lib/thumb2/libc.a(lib_a-abort.o)
 .data          0x00000000        0x0 /Applications/Arduino.app/Contents/Resources/Java/hardware/tools/g++_arm_none_eabi/bin/../lib/gcc/arm-none-eabi/4.4.1/../../../../arm-none-eabi/lib/thumb2/libc.a(lib_a-abort.o)
 .bss           0x00000000        0x0 /Applications/Arduino.app/Contents/Resources/Java/hardware/tools/g++_arm_none_eabi/bin/../lib/gcc/arm-none-eabi/4.4.1/../../../../arm-none-eabi/lib/thumb2/libc.a(lib_a-abort.o)
 .text.abort    0x00000000        0xe /Applications/Arduino.app/Contents/Resources/Java/hardware/tools/g++_arm_none_eabi/bin/../lib/gcc/arm-none-eabi/4.4.1/../../../../arm-none-eabi/lib/thumb2/libc.a(lib_a-abort.o)
 .text          0x00000000        0x0 /Applications/Arduino.app/Contents/Resources/Java/hardware/tools/g++_arm_none_eabi/bin/../lib/gcc/arm-none-eabi/4.4.1/../../../../arm-none-eabi/lib/thumb2/libc.a(lib_a-fflush.o)
 .data          0x00000000        0x0 /Applications/Arduino.app/Contents/Resources/Java/hardware/tools/g++_arm_none_eabi/bin/../lib/gcc/arm-none-eabi/4.4.1/../../../../arm-none-eabi/lib/thumb2/libc.a(lib_a-fflush.o)
 .bss           0x00000000        0x0 /Applications/Arduino.app/Contents/Resources/Java/hardware/tools/g++_arm_none_eabi/bin/../lib/gcc/arm-none-eabi/4.4.1/../../../../arm-none-eabi/lib/thumb2/libc.a(lib_a-fflush.o)
 .text._fflush_r
                0x00000000      0x13c /Applications/Arduino.app/Contents/Resources/Java/hardware/tools/g++_arm_none_eabi/bin/../lib/gcc/arm-none-eabi/4.4.1/../../../../arm-none-eabi/lib/thumb2/libc.a(lib_a-fflush.o)
 .text.fflush   0x00000000       0x24 /Applications/Arduino.app/Contents/Resources/Java/hardware/tools/g++_arm_none_eabi/bin/../lib/gcc/arm-none-eabi/4.4.1/../../../../arm-none-eabi/lib/thumb2/libc.a(lib_a-fflush.o)
 .text          0x00000000        0x0 /Applications/Arduino.app/Contents/Resources/Java/hardware/tools/g++_arm_none_eabi/bin/../lib/gcc/arm-none-eabi/4.4.1/../../../../arm-none-eabi/lib/thumb2/libc.a(lib_a-findfp.o)
 .data          0x00000000        0x0 /Applications/Arduino.app/Contents/Resources/Java/hardware/tools/g++_arm_none_eabi/bin/../lib/gcc/arm-none-eabi/4.4.1/../../../../arm-none-eabi/lib/thumb2/libc.a(lib_a-findfp.o)
 .bss           0x00000000        0x0 /Applications/Arduino.app/Contents/Resources/Java/hardware/tools/g++_arm_none_eabi/bin/../lib/gcc/arm-none-eabi/4.4.1/../../../../arm-none-eabi/lib/thumb2/libc.a(lib_a-findfp.o)
 .text.__sfp_lock_acquire
                0x00000000        0x2 /Applications/Arduino.app/Contents/Resources/Java/hardware/tools/g++_arm_none_eabi/bin/../lib/gcc/arm-none-eabi/4.4.1/../../../../arm-none-eabi/lib/thumb2/libc.a(lib_a-findfp.o)
 .text.__sfp_lock_release
                0x00000000        0x2 /Applications/Arduino.app/Contents/Resources/Java/hardware/tools/g++_arm_none_eabi/bin/../lib/gcc/arm-none-eabi/4.4.1/../../../../arm-none-eabi/lib/thumb2/libc.a(lib_a-findfp.o)
 .text.__sinit_lock_acquire
                0x00000000        0x2 /Applications/Arduino.app/Contents/Resources/Java/hardware/tools/g++_arm_none_eabi/bin/../lib/gcc/arm-none-eabi/4.4.1/../../../../arm-none-eabi/lib/thumb2/libc.a(lib_a-findfp.o)
 .text.__sinit_lock_release
                0x00000000        0x2 /Applications/Arduino.app/Contents/Resources/Java/hardware/tools/g++_arm_none_eabi/bin/../lib/gcc/arm-none-eabi/4.4.1/../../../../arm-none-eabi/lib/thumb2/libc.a(lib_a-findfp.o)
 .text.__fp_lock
                0x00000000        0x4 /Applications/Arduino.app/Contents/Resources/Java/hardware/tools/g++_arm_none_eabi/bin/../lib/gcc/arm-none-eabi/4.4.1/../../../../arm-none-eabi/lib/thumb2/libc.a(lib_a-findfp.o)
 .text.__fp_unlock
                0x00000000        0x4 /Applications/Arduino.app/Contents/Resources/Java/hardware/tools/g++_arm_none_eabi/bin/../lib/gcc/arm-none-eabi/4.4.1/../../../../arm-none-eabi/lib/thumb2/libc.a(lib_a-findfp.o)
 .text.__fp_unlock_all
                0x00000000       0x14 /Applications/Arduino.app/Contents/Resources/Java/hardware/tools/g++_arm_none_eabi/bin/../lib/gcc/arm-none-eabi/4.4.1/../../../../arm-none-eabi/lib/thumb2/libc.a(lib_a-findfp.o)
 .text.__fp_lock_all
                0x00000000       0x14 /Applications/Arduino.app/Contents/Resources/Java/hardware/tools/g++_arm_none_eabi/bin/../lib/gcc/arm-none-eabi/4.4.1/../../../../arm-none-eabi/lib/thumb2/libc.a(lib_a-findfp.o)
 .text._cleanup_r
                0x00000000        0xc /Applications/Arduino.app/Contents/Resources/Java/hardware/tools/g++_arm_none_eabi/bin/../lib/gcc/arm-none-eabi/4.4.1/../../../../arm-none-eabi/lib/thumb2/libc.a(lib_a-findfp.o)
 .text._cleanup
                0x00000000        0xc /Applications/Arduino.app/Contents/Resources/Java/hardware/tools/g++_arm_none_eabi/bin/../lib/gcc/arm-none-eabi/4.4.1/../../../../arm-none-eabi/lib/thumb2/libc.a(lib_a-findfp.o)
 .text.std      0x00000000       0x48 /Applications/Arduino.app/Contents/Resources/Java/hardware/tools/g++_arm_none_eabi/bin/../lib/gcc/arm-none-eabi/4.4.1/../../../../arm-none-eabi/lib/thumb2/libc.a(lib_a-findfp.o)
 .text.__sfmoreglue
                0x00000000       0x28 /Applications/Arduino.app/Contents/Resources/Java/hardware/tools/g++_arm_none_eabi/bin/../lib/gcc/arm-none-eabi/4.4.1/../../../../arm-none-eabi/lib/thumb2/libc.a(lib_a-findfp.o)
 .text.__sfp    0x00000000       0x78 /Applications/Arduino.app/Contents/Resources/Java/hardware/tools/g++_arm_none_eabi/bin/../lib/gcc/arm-none-eabi/4.4.1/../../../../arm-none-eabi/lib/thumb2/libc.a(lib_a-findfp.o)
 .text.__sinit  0x00000000       0x64 /Applications/Arduino.app/Contents/Resources/Java/hardware/tools/g++_arm_none_eabi/bin/../lib/gcc/arm-none-eabi/4.4.1/../../../../arm-none-eabi/lib/thumb2/libc.a(lib_a-findfp.o)
 .rodata.__sf_fake_stdin
                0x00000000       0x20 /Applications/Arduino.app/Contents/Resources/Java/hardware/tools/g++_arm_none_eabi/bin/../lib/gcc/arm-none-eabi/4.4.1/../../../../arm-none-eabi/lib/thumb2/libc.a(lib_a-findfp.o)
 .rodata.__sf_fake_stdout
                0x00000000       0x20 /Applications/Arduino.app/Contents/Resources/Java/hardware/tools/g++_arm_none_eabi/bin/../lib/gcc/arm-none-eabi/4.4.1/../../../../arm-none-eabi/lib/thumb2/libc.a(lib_a-findfp.o)
 .rodata.__sf_fake_stderr
                0x00000000       0x20 /Applications/Arduino.app/Contents/Resources/Java/hardware/tools/g++_arm_none_eabi/bin/../lib/gcc/arm-none-eabi/4.4.1/../../../../arm-none-eabi/lib/thumb2/libc.a(lib_a-findfp.o)
 .text          0x00000000        0x0 /Applications/Arduino.app/Contents/Resources/Java/hardware/tools/g++_arm_none_eabi/bin/../lib/gcc/arm-none-eabi/4.4.1/../../../../arm-none-eabi/lib/thumb2/libc.a(lib_a-freer.o)
 .data          0x00000000        0x0 /Applications/Arduino.app/Contents/Resources/Java/hardware/tools/g++_arm_none_eabi/bin/../lib/gcc/arm-none-eabi/4.4.1/../../../../arm-none-eabi/lib/thumb2/libc.a(lib_a-freer.o)
 .bss           0x00000000        0x0 /Applications/Arduino.app/Contents/Resources/Java/hardware/tools/g++_arm_none_eabi/bin/../lib/gcc/arm-none-eabi/4.4.1/../../../../arm-none-eabi/lib/thumb2/libc.a(lib_a-freer.o)
 .text._malloc_trim_r
                0x00000000       0x98 /Applications/Arduino.app/Contents/Resources/Java/hardware/tools/g++_arm_none_eabi/bin/../lib/gcc/arm-none-eabi/4.4.1/../../../../arm-none-eabi/lib/thumb2/libc.a(lib_a-freer.o)
 .text._free_r  0x00000000      0x19c /Applications/Arduino.app/Contents/Resources/Java/hardware/tools/g++_arm_none_eabi/bin/../lib/gcc/arm-none-eabi/4.4.1/../../../../arm-none-eabi/lib/thumb2/libc.a(lib_a-freer.o)
 .text          0x00000000        0x0 /Applications/Arduino.app/Contents/Resources/Java/hardware/tools/g++_arm_none_eabi/bin/../lib/gcc/arm-none-eabi/4.4.1/../../../../arm-none-eabi/lib/thumb2/libc.a(lib_a-fvwrite.o)
 .data          0x00000000        0x0 /Applications/Arduino.app/Contents/Resources/Java/hardware/tools/g++_arm_none_eabi/bin/../lib/gcc/arm-none-eabi/4.4.1/../../../../arm-none-eabi/lib/thumb2/libc.a(lib_a-fvwrite.o)
 .bss           0x00000000        0x0 /Applications/Arduino.app/Contents/Resources/Java/hardware/tools/g++_arm_none_eabi/bin/../lib/gcc/arm-none-eabi/4.4.1/../../../../arm-none-eabi/lib/thumb2/libc.a(lib_a-fvwrite.o)
 .text.__sfvwrite_r
                0x00000000      0x298 /Applications/Arduino.app/Contents/Resources/Java/hardware/tools/g++_arm_none_eabi/bin/../lib/gcc/arm-none-eabi/4.4.1/../../../../arm-none-eabi/lib/thumb2/libc.a(lib_a-fvwrite.o)
 .text          0x00000000        0x0 /Applications/Arduino.app/Contents/Resources/Java/hardware/tools/g++_arm_none_eabi/bin/../lib/gcc/arm-none-eabi/4.4.1/../../../../arm-none-eabi/lib/thumb2/libc.a(lib_a-fwalk.o)
 .data          0x00000000        0x0 /Applications/Arduino.app/Contents/Resources/Java/hardware/tools/g++_arm_none_eabi/bin/../lib/gcc/arm-none-eabi/4.4.1/../../../../arm-none-eabi/lib/thumb2/libc.a(lib_a-fwalk.o)
 .bss           0x00000000        0x0 /Applications/Arduino.app/Contents/Resources/Java/hardware/tools/g++_arm_none_eabi/bin/../lib/gcc/arm-none-eabi/4.4.1/../../../../arm-none-eabi/lib/thumb2/libc.a(lib_a-fwalk.o)
 .text._fwalk_reent
                0x00000000       0x48 /Applications/Arduino.app/Contents/Resources/Java/hardware/tools/g++_arm_none_eabi/bin/../lib/gcc/arm-none-eabi/4.4.1/../../../../arm-none-eabi/lib/thumb2/libc.a(lib_a-fwalk.o)
 .text._fwalk   0x00000000       0x44 /Applications/Arduino.app/Contents/Resources/Java/hardware/tools/g++_arm_none_eabi/bin/../lib/gcc/arm-none-eabi/4.4.1/../../../../arm-none-eabi/lib/thumb2/libc.a(lib_a-fwalk.o)
 .text          0x00000000        0x0 /Applications/Arduino.app/Contents/Resources/Java/hardware/tools/g++_arm_none_eabi/bin/../lib/gcc/arm-none-eabi/4.4.1/../../../../arm-none-eabi/lib/thumb2/libc.a(lib_a-makebuf.o)
 .data          0x00000000        0x0 /Applications/Arduino.app/Contents/Resources/Java/hardware/tools/g++_arm_none_eabi/bin/../lib/gcc/arm-none-eabi/4.4.1/../../../../arm-none-eabi/lib/thumb2/libc.a(lib_a-makebuf.o)
 .bss           0x00000000        0x0 /Applications/Arduino.app/Contents/Resources/Java/hardware/tools/g++_arm_none_eabi/bin/../lib/gcc/arm-none-eabi/4.4.1/../../../../arm-none-eabi/lib/thumb2/libc.a(lib_a-makebuf.o)
 .text.__smakebuf_r
                0x00000000       0xd0 /Applications/Arduino.app/Contents/Resources/Java/hardware/tools/g++_arm_none_eabi/bin/../lib/gcc/arm-none-eabi/4.4.1/../../../../arm-none-eabi/lib/thumb2/libc.a(lib_a-makebuf.o)
 .text          0x00000000        0x0 /Applications/Arduino.app/Contents/Resources/Java/hardware/tools/g++_arm_none_eabi/bin/../lib/gcc/arm-none-eabi/4.4.1/../../../../arm-none-eabi/lib/thumb2/libc.a(lib_a-mallocr.o)
 .data          0x00000000        0x0 /Applications/Arduino.app/Contents/Resources/Java/hardware/tools/g++_arm_none_eabi/bin/../lib/gcc/arm-none-eabi/4.4.1/../../../../arm-none-eabi/lib/thumb2/libc.a(lib_a-mallocr.o)
 .bss           0x00000000        0x0 /Applications/Arduino.app/Contents/Resources/Java/hardware/tools/g++_arm_none_eabi/bin/../lib/gcc/arm-none-eabi/4.4.1/../../../../arm-none-eabi/lib/thumb2/libc.a(lib_a-mallocr.o)
 .text._malloc_r
                0x00000000      0x424 /Applications/Arduino.app/Contents/Resources/Java/hardware/tools/g++_arm_none_eabi/bin/../lib/gcc/arm-none-eabi/4.4.1/../../../../arm-none-eabi/lib/thumb2/libc.a(lib_a-mallocr.o)
 .data.__malloc_av_
                0x00000000      0x408 /Applications/Arduino.app/Contents/Resources/Java/hardware/tools/g++_arm_none_eabi/bin/../lib/gcc/arm-none-eabi/4.4.1/../../../../arm-none-eabi/lib/thumb2/libc.a(lib_a-mallocr.o)
 .data.__malloc_trim_threshold
                0x00000000        0x4 /Applications/Arduino.app/Contents/Resources/Java/hardware/tools/g++_arm_none_eabi/bin/../lib/gcc/arm-none-eabi/4.4.1/../../../../arm-none-eabi/lib/thumb2/libc.a(lib_a-mallocr.o)
 .bss.__malloc_max_total_mem
                0x00000000        0x4 /Applications/Arduino.app/Contents/Resources/Java/hardware/tools/g++_arm_none_eabi/bin/../lib/gcc/arm-none-eabi/4.4.1/../../../../arm-none-eabi/lib/thumb2/libc.a(lib_a-mallocr.o)
 .bss.__malloc_max_sbrked_mem
                0x00000000        0x4 /Applications/Arduino.app/Contents/Resources/Java/hardware/tools/g++_arm_none_eabi/bin/../lib/gcc/arm-none-eabi/4.4.1/../../../../arm-none-eabi/lib/thumb2/libc.a(lib_a-mallocr.o)
 .bss.__malloc_top_pad
                0x00000000        0x4 /Applications/Arduino.app/Contents/Resources/Java/hardware/tools/g++_arm_none_eabi/bin/../lib/gcc/arm-none-eabi/4.4.1/../../../../arm-none-eabi/lib/thumb2/libc.a(lib_a-mallocr.o)
 .bss.__malloc_current_mallinfo
                0x00000000       0x28 /Applications/Arduino.app/Contents/Resources/Java/hardware/tools/g++_arm_none_eabi/bin/../lib/gcc/arm-none-eabi/4.4.1/../../../../arm-none-eabi/lib/thumb2/libc.a(lib_a-mallocr.o)
 .data.__malloc_sbrk_base
                0x00000000        0x4 /Applications/Arduino.app/Contents/Resources/Java/hardware/tools/g++_arm_none_eabi/bin/../lib/gcc/arm-none-eabi/4.4.1/../../../../arm-none-eabi/lib/thumb2/libc.a(lib_a-mallocr.o)
 .text          0x00000000        0x0 /Applications/Arduino.app/Contents/Resources/Java/hardware/tools/g++_arm_none_eabi/bin/../lib/gcc/arm-none-eabi/4.4.1/../../../../arm-none-eabi/lib/thumb2/libc.a(lib_a-memchr.o)
 .data          0x00000000        0x0 /Applications/Arduino.app/Contents/Resources/Java/hardware/tools/g++_arm_none_eabi/bin/../lib/gcc/arm-none-eabi/4.4.1/../../../../arm-none-eabi/lib/thumb2/libc.a(lib_a-memchr.o)
 .bss           0x00000000        0x0 /Applications/Arduino.app/Contents/Resources/Java/hardware/tools/g++_arm_none_eabi/bin/../lib/gcc/arm-none-eabi/4.4.1/../../../../arm-none-eabi/lib/thumb2/libc.a(lib_a-memchr.o)
 .text.memchr   0x00000000       0x16 /Applications/Arduino.app/Contents/Resources/Java/hardware/tools/g++_arm_none_eabi/bin/../lib/gcc/arm-none-eabi/4.4.1/../../../../arm-none-eabi/lib/thumb2/libc.a(lib_a-memchr.o)
 .text          0x00000000        0x0 /Applications/Arduino.app/Contents/Resources/Java/hardware/tools/g++_arm_none_eabi/bin/../lib/gcc/arm-none-eabi/4.4.1/../../../../arm-none-eabi/lib/thumb2/libc.a(lib_a-memcpy.o)
 .data          0x00000000        0x0 /Applications/Arduino.app/Contents/Resources/Java/hardware/tools/g++_arm_none_eabi/bin/../lib/gcc/arm-none-eabi/4.4.1/../../../../arm-none-eabi/lib/thumb2/libc.a(lib_a-memcpy.o)
 .bss           0x00000000        0x0 /Applications/Arduino.app/Contents/Resources/Java/hardware/tools/g++_arm_none_eabi/bin/../lib/gcc/arm-none-eabi/4.4.1/../../../../arm-none-eabi/lib/thumb2/libc.a(lib_a-memcpy.o)
 .text.memcpy   0x00000000       0x1a /Applications/Arduino.app/Contents/Resources/Java/hardware/tools/g++_arm_none_eabi/bin/../lib/gcc/arm-none-eabi/4.4.1/../../../../arm-none-eabi/lib/thumb2/libc.a(lib_a-memcpy.o)
 .text          0x00000000        0x0 /Applications/Arduino.app/Contents/Resources/Java/hardware/tools/g++_arm_none_eabi/bin/../lib/gcc/arm-none-eabi/4.4.1/../../../../arm-none-eabi/lib/thumb2/libc.a(lib_a-memmove.o)
 .data          0x00000000        0x0 /Applications/Arduino.app/Contents/Resources/Java/hardware/tools/g++_arm_none_eabi/bin/../lib/gcc/arm-none-eabi/4.4.1/../../../../arm-none-eabi/lib/thumb2/libc.a(lib_a-memmove.o)
 .bss           0x00000000        0x0 /Applications/Arduino.app/Contents/Resources/Java/hardware/tools/g++_arm_none_eabi/bin/../lib/gcc/arm-none-eabi/4.4.1/../../../../arm-none-eabi/lib/thumb2/libc.a(lib_a-memmove.o)
 .text.memmove  0x00000000       0x3a /Applications/Arduino.app/Contents/Resources/Java/hardware/tools/g++_arm_none_eabi/bin/../lib/gcc/arm-none-eabi/4.4.1/../../../../arm-none-eabi/lib/thumb2/libc.a(lib_a-memmove.o)
 .text          0x00000000        0x0 /Applications/Arduino.app/Contents/Resources/Java/hardware/tools/g++_arm_none_eabi/bin/../lib/gcc/arm-none-eabi/4.4.1/../../../../arm-none-eabi/lib/thumb2/libc.a(lib_a-mlock.o)
 .data          0x00000000        0x0 /Applications/Arduino.app/Contents/Resources/Java/hardware/tools/g++_arm_none_eabi/bin/../lib/gcc/arm-none-eabi/4.4.1/../../../../arm-none-eabi/lib/thumb2/libc.a(lib_a-mlock.o)
 .bss           0x00000000        0x0 /Applications/Arduino.app/Contents/Resources/Java/hardware/tools/g++_arm_none_eabi/bin/../lib/gcc/arm-none-eabi/4.4.1/../../../../arm-none-eabi/lib/thumb2/libc.a(lib_a-mlock.o)
 .text.__malloc_lock
                0x00000000        0x2 /Applications/Arduino.app/Contents/Resources/Java/hardware/tools/g++_arm_none_eabi/bin/../lib/gcc/arm-none-eabi/4.4.1/../../../../arm-none-eabi/lib/thumb2/libc.a(lib_a-mlock.o)
 .text.__malloc_unlock
                0x00000000        0x2 /Applications/Arduino.app/Contents/Resources/Java/hardware/tools/g++_arm_none_eabi/bin/../lib/gcc/arm-none-eabi/4.4.1/../../../../arm-none-eabi/lib/thumb2/libc.a(lib_a-mlock.o)
 .text          0x00000000        0x0 /Applications/Arduino.app/Contents/Resources/Java/hardware/tools/g++_arm_none_eabi/bin/../lib/gcc/arm-none-eabi/4.4.1/../../../../arm-none-eabi/lib/thumb2/libc.a(lib_a-reallocr.o)
 .data          0x00000000        0x0 /Applications/Arduino.app/Contents/Resources/Java/hardware/tools/g++_arm_none_eabi/bin/../lib/gcc/arm-none-eabi/4.4.1/../../../../arm-none-eabi/lib/thumb2/libc.a(lib_a-reallocr.o)
 .bss           0x00000000        0x0 /Applications/Arduino.app/Contents/Resources/Java/hardware/tools/g++_arm_none_eabi/bin/../lib/gcc/arm-none-eabi/4.4.1/../../../../arm-none-eabi/lib/thumb2/libc.a(lib_a-reallocr.o)
 .text._realloc_r
                0x00000000      0x2f4 /Applications/Arduino.app/Contents/Resources/Java/hardware/tools/g++_arm_none_eabi/bin/../lib/gcc/arm-none-eabi/4.4.1/../../../../arm-none-eabi/lib/thumb2/libc.a(lib_a-reallocr.o)
 .text          0x00000000        0x0 /Applications/Arduino.app/Contents/Resources/Java/hardware/tools/g++_arm_none_eabi/bin/../lib/gcc/arm-none-eabi/4.4.1/../../../../arm-none-eabi/lib/thumb2/libc.a(lib_a-sbrkr.o)
 .data          0x00000000        0x0 /Applications/Arduino.app/Contents/Resources/Java/hardware/tools/g++_arm_none_eabi/bin/../lib/gcc/arm-none-eabi/4.4.1/../../../../arm-none-eabi/lib/thumb2/libc.a(lib_a-sbrkr.o)
 .bss           0x00000000        0x0 /Applications/Arduino.app/Contents/Resources/Java/hardware/tools/g++_arm_none_eabi/bin/../lib/gcc/arm-none-eabi/4.4.1/../../../../arm-none-eabi/lib/thumb2/libc.a(lib_a-sbrkr.o)
 .text._sbrk_r  0x00000000       0x24 /Applications/Arduino.app/Contents/Resources/Java/hardware/tools/g++_arm_none_eabi/bin/../lib/gcc/arm-none-eabi/4.4.1/../../../../arm-none-eabi/lib/thumb2/libc.a(lib_a-sbrkr.o)
 .text          0x00000000        0x0 /Applications/Arduino.app/Contents/Resources/Java/hardware/tools/g++_arm_none_eabi/bin/../lib/gcc/arm-none-eabi/4.4.1/../../../../arm-none-eabi/lib/thumb2/libc.a(lib_a-signal.o)
 .data          0x00000000        0x0 /Applications/Arduino.app/Contents/Resources/Java/hardware/tools/g++_arm_none_eabi/bin/../lib/gcc/arm-none-eabi/4.4.1/../../../../arm-none-eabi/lib/thumb2/libc.a(lib_a-signal.o)
 .bss           0x00000000        0x0 /Applications/Arduino.app/Contents/Resources/Java/hardware/tools/g++_arm_none_eabi/bin/../lib/gcc/arm-none-eabi/4.4.1/../../../../arm-none-eabi/lib/thumb2/libc.a(lib_a-signal.o)
 .text._raise_r
                0x00000000       0x56 /Applications/Arduino.app/Contents/Resources/Java/hardware/tools/g++_arm_none_eabi/bin/../lib/gcc/arm-none-eabi/4.4.1/../../../../arm-none-eabi/lib/thumb2/libc.a(lib_a-signal.o)
 .text.raise    0x00000000       0x10 /Applications/Arduino.app/Contents/Resources/Java/hardware/tools/g++_arm_none_eabi/bin/../lib/gcc/arm-none-eabi/4.4.1/../../../../arm-none-eabi/lib/thumb2/libc.a(lib_a-signal.o)
 .text._init_signal_r
                0x00000000       0x24 /Applications/Arduino.app/Contents/Resources/Java/hardware/tools/g++_arm_none_eabi/bin/../lib/gcc/arm-none-eabi/4.4.1/../../../../arm-none-eabi/lib/thumb2/libc.a(lib_a-signal.o)
 .text._init_signal
                0x00000000        0xc /Applications/Arduino.app/Contents/Resources/Java/hardware/tools/g++_arm_none_eabi/bin/../lib/gcc/arm-none-eabi/4.4.1/../../../../arm-none-eabi/lib/thumb2/libc.a(lib_a-signal.o)
 .text.__sigtramp_r
                0x00000000       0x46 /Applications/Arduino.app/Contents/Resources/Java/hardware/tools/g++_arm_none_eabi/bin/../lib/gcc/arm-none-eabi/4.4.1/../../../../arm-none-eabi/lib/thumb2/libc.a(lib_a-signal.o)
 .text.__sigtramp
                0x00000000       0x10 /Applications/Arduino.app/Contents/Resources/Java/hardware/tools/g++_arm_none_eabi/bin/../lib/gcc/arm-none-eabi/4.4.1/../../../../arm-none-eabi/lib/thumb2/libc.a(lib_a-signal.o)
 .text._signal_r
                0x00000000       0x2e /Applications/Arduino.app/Contents/Resources/Java/hardware/tools/g++_arm_none_eabi/bin/../lib/gcc/arm-none-eabi/4.4.1/../../../../arm-none-eabi/lib/thumb2/libc.a(lib_a-signal.o)
 .text.signal   0x00000000       0x14 /Applications/Arduino.app/Contents/Resources/Java/hardware/tools/g++_arm_none_eabi/bin/../lib/gcc/arm-none-eabi/4.4.1/../../../../arm-none-eabi/lib/thumb2/libc.a(lib_a-signal.o)
 .text          0x00000000        0x0 /Applications/Arduino.app/Contents/Resources/Java/hardware/tools/g++_arm_none_eabi/bin/../lib/gcc/arm-none-eabi/4.4.1/../../../../arm-none-eabi/lib/thumb2/libc.a(lib_a-signalr.o)
 .data          0x00000000        0x0 /Applications/Arduino.app/Contents/Resources/Java/hardware/tools/g++_arm_none_eabi/bin/../lib/gcc/arm-none-eabi/4.4.1/../../../../arm-none-eabi/lib/thumb2/libc.a(lib_a-signalr.o)
 .bss           0x00000000        0x0 /Applications/Arduino.app/Contents/Resources/Java/hardware/tools/g++_arm_none_eabi/bin/../lib/gcc/arm-none-eabi/4.4.1/../../../../arm-none-eabi/lib/thumb2/libc.a(lib_a-signalr.o)
 .text._getpid_r
                0x00000000        0x4 /Applications/Arduino.app/Contents/Resources/Java/hardware/tools/g++_arm_none_eabi/bin/../lib/gcc/arm-none-eabi/4.4.1/../../../../arm-none-eabi/lib/thumb2/libc.a(lib_a-signalr.o)
 .text._kill_r  0x00000000       0x24 /Applications/Arduino.app/Contents/Resources/Java/hardware/tools/g++_arm_none_eabi/bin/../lib/gcc/arm-none-eabi/4.4.1/../../../../arm-none-eabi/lib/thumb2/libc.a(lib_a-signalr.o)
 .text          0x00000000        0x0 /Applications/Arduino.app/Contents/Resources/Java/hardware/tools/g++_arm_none_eabi/bin/../lib/gcc/arm-none-eabi/4.4.1/../../../../arm-none-eabi/lib/thumb2/libc.a(lib_a-stdio.o)
 .data          0x00000000        0x0 /Applications/Arduino.app/Contents/Resources/Java/hardware/tools/g++_arm_none_eabi/bin/../lib/gcc/arm-none-eabi/4.4.1/../../../../arm-none-eabi/lib/thumb2/libc.a(lib_a-stdio.o)
 .bss           0x00000000        0x0 /Applications/Arduino.app/Contents/Resources/Java/hardware/tools/g++_arm_none_eabi/bin/../lib/gcc/arm-none-eabi/4.4.1/../../../../arm-none-eabi/lib/thumb2/libc.a(lib_a-stdio.o)
 .text.__sclose
                0x00000000        0x8 /Applications/Arduino.app/Contents/Resources/Java/hardware/tools/g++_arm_none_eabi/bin/../lib/gcc/arm-none-eabi/4.4.1/../../../../arm-none-eabi/lib/thumb2/libc.a(lib_a-stdio.o)
 .text.__sseek  0x00000000       0x26 /Applications/Arduino.app/Contents/Resources/Java/hardware/tools/g++_arm_none_eabi/bin/../lib/gcc/arm-none-eabi/4.4.1/../../../../arm-none-eabi/lib/thumb2/libc.a(lib_a-stdio.o)
 .text.__swrite
                0x00000000       0x3a /Applications/Arduino.app/Contents/Resources/Java/hardware/tools/g++_arm_none_eabi/bin/../lib/gcc/arm-none-eabi/4.4.1/../../../../arm-none-eabi/lib/thumb2/libc.a(lib_a-stdio.o)
 .text.__sread  0x00000000       0x22 /Applications/Arduino.app/Contents/Resources/Java/hardware/tools/g++_arm_none_eabi/bin/../lib/gcc/arm-none-eabi/4.4.1/../../../../arm-none-eabi/lib/thumb2/libc.a(lib_a-stdio.o)
 .text          0x00000000        0x0 /Applications/Arduino.app/Contents/Resources/Java/hardware/tools/g++_arm_none_eabi/bin/../lib/gcc/arm-none-eabi/4.4.1/../../../../arm-none-eabi/lib/thumb2/libc.a(lib_a-writer.o)
 .data          0x00000000        0x0 /Applications/Arduino.app/Contents/Resources/Java/hardware/tools/g++_arm_none_eabi/bin/../lib/gcc/arm-none-eabi/4.4.1/../../../../arm-none-eabi/lib/thumb2/libc.a(lib_a-writer.o)
 .bss           0x00000000        0x0 /Applications/Arduino.app/Contents/Resources/Java/hardware/tools/g++_arm_none_eabi/bin/../lib/gcc/arm-none-eabi/4.4.1/../../../../arm-none-eabi/lib/thumb2/libc.a(lib_a-writer.o)
 .text._write_r
                0x00000000       0x28 /Applications/Arduino.app/Contents/Resources/Java/hardware/tools/g++_arm_none_eabi/bin/../lib/gcc/arm-none-eabi/4.4.1/../../../../arm-none-eabi/lib/thumb2/libc.a(lib_a-writer.o)
 .text          0x00000000        0x0 /Applications/Arduino.app/Contents/Resources/Java/hardware/tools/g++_arm_none_eabi/bin/../lib/gcc/arm-none-eabi/4.4.1/../../../../arm-none-eabi/lib/thumb2/libc.a(lib_a-closer.o)
 .data          0x00000000        0x0 /Applications/Arduino.app/Contents/Resources/Java/hardware/tools/g++_arm_none_eabi/bin/../lib/gcc/arm-none-eabi/4.4.1/../../../../arm-none-eabi/lib/thumb2/libc.a(lib_a-closer.o)
 .bss           0x00000000        0x0 /Applications/Arduino.app/Contents/Resources/Java/hardware/tools/g++_arm_none_eabi/bin/../lib/gcc/arm-none-eabi/4.4.1/../../../../arm-none-eabi/lib/thumb2/libc.a(lib_a-closer.o)
 .text._close_r
                0x00000000       0x24 /Applications/Arduino.app/Contents/Resources/Java/hardware/tools/g++_arm_none_eabi/bin/../lib/gcc/arm-none-eabi/4.4.1/../../../../arm-none-eabi/lib/thumb2/libc.a(lib_a-closer.o)
 .text          0x00000000        0x0 /Applications/Arduino.app/Contents/Resources/Java/hardware/tools/g++_arm_none_eabi/bin/../lib/gcc/arm-none-eabi/4.4.1/../../../../arm-none-eabi/lib/thumb2/libc.a(lib_a-fclose.o)
 .data          0x00000000        0x0 /Applications/Arduino.app/Contents/Resources/Java/hardware/tools/g++_arm_none_eabi/bin/../lib/gcc/arm-none-eabi/4.4.1/../../../../arm-none-eabi/lib/thumb2/libc.a(lib_a-fclose.o)
 .bss           0x00000000        0x0 /Applications/Arduino.app/Contents/Resources/Java/hardware/tools/g++_arm_none_eabi/bin/../lib/gcc/arm-none-eabi/4.4.1/../../../../arm-none-eabi/lib/thumb2/libc.a(lib_a-fclose.o)
 .text._fclose_r
                0x00000000       0xac /Applications/Arduino.app/Contents/Resources/Java/hardware/tools/g++_arm_none_eabi/bin/../lib/gcc/arm-none-eabi/4.4.1/../../../../arm-none-eabi/lib/thumb2/libc.a(lib_a-fclose.o)
 .text.fclose   0x00000000       0x10 /Applications/Arduino.app/Contents/Resources/Java/hardware/tools/g++_arm_none_eabi/bin/../lib/gcc/arm-none-eabi/4.4.1/../../../../arm-none-eabi/lib/thumb2/libc.a(lib_a-fclose.o)
 .text          0x00000000        0x0 /Applications/Arduino.app/Contents/Resources/Java/hardware/tools/g++_arm_none_eabi/bin/../lib/gcc/arm-none-eabi/4.4.1/../../../../arm-none-eabi/lib/thumb2/libc.a(lib_a-fstatr.o)
 .data          0x00000000        0x0 /Applications/Arduino.app/Contents/Resources/Java/hardware/tools/g++_arm_none_eabi/bin/../lib/gcc/arm-none-eabi/4.4.1/../../../../arm-none-eabi/lib/thumb2/libc.a(lib_a-fstatr.o)
 .bss           0x00000000        0x0 /Applications/Arduino.app/Contents/Resources/Java/hardware/tools/g++_arm_none_eabi/bin/../lib/gcc/arm-none-eabi/4.4.1/../../../../arm-none-eabi/lib/thumb2/libc.a(lib_a-fstatr.o)
 .text._fstat_r
                0x00000000       0x24 /Applications/Arduino.app/Contents/Resources/Java/hardware/tools/g++_arm_none_eabi/bin/../lib/gcc/arm-none-eabi/4.4.1/../../../../arm-none-eabi/lib/thumb2/libc.a(lib_a-fstatr.o)
 .text          0x00000000        0x0 /Applications/Arduino.app/Contents/Resources/Java/hardware/tools/g++_arm_none_eabi/bin/../lib/gcc/arm-none-eabi/4.4.1/../../../../arm-none-eabi/lib/thumb2/libc.a(lib_a-isattyr.o)
 .data          0x00000000        0x0 /Applications/Arduino.app/Contents/Resources/Java/hardware/tools/g++_arm_none_eabi/bin/../lib/gcc/arm-none-eabi/4.4.1/../../../../arm-none-eabi/lib/thumb2/libc.a(lib_a-isattyr.o)
 .bss           0x00000000        0x0 /Applications/Arduino.app/Contents/Resources/Java/hardware/tools/g++_arm_none_eabi/bin/../lib/gcc/arm-none-eabi/4.4.1/../../../../arm-none-eabi/lib/thumb2/libc.a(lib_a-isattyr.o)
 .text._isatty_r
                0x00000000       0x24 /Applications/Arduino.app/Contents/Resources/Java/hardware/tools/g++_arm_none_eabi/bin/../lib/gcc/arm-none-eabi/4.4.1/../../../../arm-none-eabi/lib/thumb2/libc.a(lib_a-isattyr.o)
 .text          0x00000000        0x0 /Applications/Arduino.app/Contents/Resources/Java/hardware/tools/g++_arm_none_eabi/bin/../lib/gcc/arm-none-eabi/4.4.1/../../../../arm-none-eabi/lib/thumb2/libc.a(lib_a-lseekr.o)
 .data          0x00000000        0x0 /Applications/Arduino.app/Contents/Resources/Java/hardware/tools/g++_arm_none_eabi/bin/../lib/gcc/arm-none-eabi/4.4.1/../../../../arm-none-eabi/lib/thumb2/libc.a(lib_a-lseekr.o)
 .bss           0x00000000        0x0 /Applications/Arduino.app/Contents/Resources/Java/hardware/tools/g++_arm_none_eabi/bin/../lib/gcc/arm-none-eabi/4.4.1/../../../../arm-none-eabi/lib/thumb2/libc.a(lib_a-lseekr.o)
 .text._lseek_r
                0x00000000       0x28 /Applications/Arduino.app/Contents/Resources/Java/hardware/tools/g++_arm_none_eabi/bin/../lib/gcc/arm-none-eabi/4.4.1/../../../../arm-none-eabi/lib/thumb2/libc.a(lib_a-lseekr.o)
 .text          0x00000000        0x0 /Applications/Arduino.app/Contents/Resources/Java/hardware/tools/g++_arm_none_eabi/bin/../lib/gcc/arm-none-eabi/4.4.1/../../../../arm-none-eabi/lib/thumb2/libc.a(lib_a-readr.o)
 .data          0x00000000        0x0 /Applications/Arduino.app/Contents/Resources/Java/hardware/tools/g++_arm_none_eabi/bin/../lib/gcc/arm-none-eabi/4.4.1/../../../../arm-none-eabi/lib/thumb2/libc.a(lib_a-readr.o)
 .bss           0x00000000        0x0 /Applications/Arduino.app/Contents/Resources/Java/hardware/tools/g++_arm_none_eabi/bin/../lib/gcc/arm-none-eabi/4.4.1/../../../../arm-none-eabi/lib/thumb2/libc.a(lib_a-readr.o)
 .text._read_r  0x00000000       0x28 /Applications/Arduino.app/Contents/Resources/Java/hardware/tools/g++_arm_none_eabi/bin/../lib/gcc/arm-none-eabi/4.4.1/../../../../arm-none-eabi/lib/thumb2/libc.a(lib_a-readr.o)
 .text          0x00000000        0x0 /Applications/Arduino.app/Contents/Resources/Java/hardware/tools/g++_arm_none_eabi/bin/../lib/gcc/arm-none-eabi/4.4.1/../../../../arm-none-eabi/lib/thumb2/libc.a(lib_a-reent.o)
 .data          0x00000000        0x0 /Applications/Arduino.app/Contents/Resources/Java/hardware/tools/g++_arm_none_eabi/bin/../lib/gcc/arm-none-eabi/4.4.1/../../../../arm-none-eabi/lib/thumb2/libc.a(lib_a-reent.o)
 .bss           0x00000000        0x0 /Applications/Arduino.app/Contents/Resources/Java/hardware/tools/g++_arm_none_eabi/bin/../lib/gcc/arm-none-eabi/4.4.1/../../../../arm-none-eabi/lib/thumb2/libc.a(lib_a-reent.o)
 .text._wrapup_reent
                0x00000000       0x30 /Applications/Arduino.app/Contents/Resources/Java/hardware/tools/g++_arm_none_eabi/bin/../lib/gcc/arm-none-eabi/4.4.1/../../../../arm-none-eabi/lib/thumb2/libc.a(lib_a-reent.o)
 .text.cleanup_glue
                0x00000000       0x1a /Applications/Arduino.app/Contents/Resources/Java/hardware/tools/g++_arm_none_eabi/bin/../lib/gcc/arm-none-eabi/4.4.1/../../../../arm-none-eabi/lib/thumb2/libc.a(lib_a-reent.o)
 .text._reclaim_reent
                0x00000000       0xb4 /Applications/Arduino.app/Contents/Resources/Java/hardware/tools/g++_arm_none_eabi/bin/../lib/gcc/arm-none-eabi/4.4.1/../../../../arm-none-eabi/lib/thumb2/libc.a(lib_a-reent.o)
 COMMON         0x00000000        0x4 /Applications/Arduino.app/Contents/Resources/Java/hardware/tools/g++_arm_none_eabi/bin/../lib/gcc/arm-none-eabi/4.4.1/../../../../arm-none-eabi/lib/thumb2/libc.a(lib_a-reent.o)
 .text          0x00000000      0x278 /Applications/Arduino.app/Contents/Resources/Java/hardware/tools/g++_arm_none_eabi/bin/../lib/gcc/arm-none-eabi/4.4.1/thumb2/libgcc.a(_udivsi3.o)
 .data          0x00000000        0x0 /Applications/Arduino.app/Contents/Resources/Java/hardware/tools/g++_arm_none_eabi/bin/../lib/gcc/arm-none-eabi/4.4.1/thumb2/libgcc.a(_udivsi3.o)
 .bss           0x00000000        0x0 /Applications/Arduino.app/Contents/Resources/Java/hardware/tools/g++_arm_none_eabi/bin/../lib/gcc/arm-none-eabi/4.4.1/thumb2/libgcc.a(_udivsi3.o)
 .text          0x00000000        0x4 /Applications/Arduino.app/Contents/Resources/Java/hardware/tools/g++_arm_none_eabi/bin/../lib/gcc/arm-none-eabi/4.4.1/thumb2/libgcc.a(_dvmd_tls.o)
 .data          0x00000000        0x0 /Applications/Arduino.app/Contents/Resources/Java/hardware/tools/g++_arm_none_eabi/bin/../lib/gcc/arm-none-eabi/4.4.1/thumb2/libgcc.a(_dvmd_tls.o)
 .bss           0x00000000        0x0 /Applications/Arduino.app/Contents/Resources/Java/hardware/tools/g++_arm_none_eabi/bin/../lib/gcc/arm-none-eabi/4.4.1/thumb2/libgcc.a(_dvmd_tls.o)
 .text          0x00000000        0x0 /Applications/Arduino.app/Contents/Resources/Java/hardware/tools/g++_arm_none_eabi/bin/../lib/gcc/arm-none-eabi/4.4.1/thumb2/crtend.o
 .data          0x00000000        0x0 /Applications/Arduino.app/Contents/Resources/Java/hardware/tools/g++_arm_none_eabi/bin/../lib/gcc/arm-none-eabi/4.4.1/thumb2/crtend.o
 .bss           0x00000000        0x0 /Applications/Arduino.app/Contents/Resources/Java/hardware/tools/g++_arm_none_eabi/bin/../lib/gcc/arm-none-eabi/4.4.1/thumb2/crtend.o
 .jcr           0x00000000        0x4 /Applications/Arduino.app/Contents/Resources/Java/hardware/tools/g++_arm_none_eabi/bin/../lib/gcc/arm-none-eabi/4.4.1/thumb2/crtend.o
 .text          0x00000000        0x0 /Applications/Arduino.app/Contents/Resources/Java/hardware/tools/g++_arm_none_eabi/bin/../lib/gcc/arm-none-eabi/4.4.1/thumb2/crtn.o
 .data          0x00000000        0x0 /Applications/Arduino.app/Contents/Resources/Java/hardware/tools/g++_arm_none_eabi/bin/../lib/gcc/arm-none-eabi/4.4.1/thumb2/crtn.o
 .bss           0x00000000        0x0 /Applications/Arduino.app/Contents/Resources/Java/hardware/tools/g++_arm_none_eabi/bin/../lib/gcc/arm-none-eabi/4.4.1/thumb2/crtn.o

Memory Configuration

Name             Origin             Length             Attributes
rom              0x00080000         0x00080000         xr
sram0            0x20000000         0x00010000         xrw
sram1            0x20080000         0x00008000         xrw
ram              0x20070000         0x00018000         xrw
*default*        0x00000000         0xffffffff

Linker script and memory map

LOAD /Applications/Arduino.app/Contents/Resources/Java/hardware/tools/g++_arm_none_eabi/bin/../lib/gcc/arm-none-eabi/4.4.1/thumb2/crti.o
LOAD /Applications/Arduino.app/Contents/Resources/Java/hardware/tools/g++_arm_none_eabi/bin/../lib/gcc/arm-none-eabi/4.4.1/thumb2/crtbegin.o
LOAD Builds/variant.o
LOAD /Applications/Arduino.app/Contents/Resources/Java/hardware/tools/g++_arm_none_eabi/bin/../lib/gcc/arm-none-eabi/4.4.1/thumb2/libgcc.a
START GROUP
LOAD Builds/syscalls_sam3.o
LOAD /Applications/Arduino.app/Contents/Resources/Java/hardware/arduino/sam/variants/arduino_due_x/libsam_sam3x8e_gcc_rel.a
LOAD Builds/LocalLibrary.o
LOAD Builds/main.o
LOAD Builds/embeddedcomputing.a
END GROUP
LOAD /Applications/Arduino.app/Contents/Resources/Java/hardware/tools/g++_arm_none_eabi/bin/../lib/gcc/arm-none-eabi/4.4.1/../../../../arm-none-eabi/lib/thumb2/libstdc++.a
LOAD /Applications/Arduino.app/Contents/Resources/Java/hardware/tools/g++_arm_none_eabi/bin/../lib/gcc/arm-none-eabi/4.4.1/../../../../arm-none-eabi/lib/thumb2/libm.a
START GROUP
LOAD /Applications/Arduino.app/Contents/Resources/Java/hardware/tools/g++_arm_none_eabi/bin/../lib/gcc/arm-none-eabi/4.4.1/thumb2/libgcc.a
LOAD /Applications/Arduino.app/Contents/Resources/Java/hardware/tools/g++_arm_none_eabi/bin/../lib/gcc/arm-none-eabi/4.4.1/../../../../arm-none-eabi/lib/thumb2/libc.a
END GROUP
LOAD /Applications/Arduino.app/Contents/Resources/Java/hardware/tools/g++_arm_none_eabi/bin/../lib/gcc/arm-none-eabi/4.4.1/thumb2/crtend.o
LOAD /Applications/Arduino.app/Contents/Resources/Java/hardware/tools/g++_arm_none_eabi/bin/../lib/gcc/arm-none-eabi/4.4.1/thumb2/crtn.o

.text           0x00080000     0x286c
                0x00080000                . = ALIGN (0x4)
                0x00080000                _sfixed = .
 *(.vectors .vectors.*)
 .vectors       0x00080000       0xf4 /Applications/Arduino.app/Contents/Resources/Java/hardware/arduino/sam/variants/arduino_due_x/libsam_sam3x8e_gcc_rel.a(startup_sam3xa.o)
                0x00080000                exception_table
 *(.text .text.* .gnu.linkonce.t.*)
 .text          0x000800f4       0x30 /Applications/Arduino.app/Contents/Resources/Java/hardware/tools/g++_arm_none_eabi/bin/../lib/gcc/arm-none-eabi/4.4.1/thumb2/crtbegin.o
 .text._Z11serialEventv
                0x00080124        0x2 Builds/variant.o
                0x00080124                _Z11serialEventv
 .text._Z12serialEvent1v
                0x00080126        0x2 Builds/variant.o
                0x00080126                _Z12serialEvent1v
 .text._Z12serialEvent2v
                0x00080128        0x2 Builds/variant.o
                0x00080128                _Z12serialEvent2v
 .text._Z12serialEvent3v
                0x0008012a        0x2 Builds/variant.o
                0x0008012a                _Z12serialEvent3v
 .text.init     0x0008012c      0x134 Builds/variant.o
                0x0008012c                init
 .text._Z14serialEventRunv
                0x00080260       0x48 Builds/variant.o
                0x00080260                _Z14serialEventRunv
 .text.USART3_Handler
                0x000802a8        0xc Builds/variant.o
                0x000802a8                USART3_Handler
 .text.USART1_Handler
                0x000802b4        0xc Builds/variant.o
                0x000802b4                USART1_Handler
 .text.USART0_Handler
                0x000802c0        0xc Builds/variant.o
                0x000802c0                USART0_Handler
 .text.UART_Handler
                0x000802cc        0xc Builds/variant.o
                0x000802cc                UART_Handler
 .text._GLOBAL__I_g_APinDescription
                0x000802d8       0x8c Builds/variant.o
 .text.PIO_DisableInterrupt
                0x00080364        0x4 /Applications/Arduino.app/Contents/Resources/Java/hardware/arduino/sam/variants/arduino_due_x/libsam_sam3x8e_gcc_rel.a(pio.o)
                0x00080364                PIO_DisableInterrupt
 .text.PIO_PullUp
                0x00080368        0xa /Applications/Arduino.app/Contents/Resources/Java/hardware/arduino/sam/variants/arduino_due_x/libsam_sam3x8e_gcc_rel.a(pio.o)
                0x00080368                PIO_PullUp
 .text.PIO_SetPeripheral
                0x00080372       0x2a /Applications/Arduino.app/Contents/Resources/Java/hardware/arduino/sam/variants/arduino_due_x/libsam_sam3x8e_gcc_rel.a(pio.o)
                0x00080372                PIO_SetPeripheral
 .text.PIO_SetInput
                0x0008039c       0x40 /Applications/Arduino.app/Contents/Resources/Java/hardware/arduino/sam/variants/arduino_due_x/libsam_sam3x8e_gcc_rel.a(pio.o)
                0x0008039c                PIO_SetInput
 .text.PIO_SetOutput
                0x000803dc       0x38 /Applications/Arduino.app/Contents/Resources/Java/hardware/arduino/sam/variants/arduino_due_x/libsam_sam3x8e_gcc_rel.a(pio.o)
                0x000803dc                PIO_SetOutput
 .text.PIO_Configure
                0x00080414       0x74 /Applications/Arduino.app/Contents/Resources/Java/hardware/arduino/sam/variants/arduino_due_x/libsam_sam3x8e_gcc_rel.a(pio.o)
                0x00080414                PIO_Configure
 .text.PIO_GetOutputDataStatus
                0x00080488       0x16 /Applications/Arduino.app/Contents/Resources/Java/hardware/arduino/sam/variants/arduino_due_x/libsam_sam3x8e_gcc_rel.a(pio.o)
                0x00080488                PIO_GetOutputDataStatus
 *fill*         0x0008049e        0x2 00
 .text.pmc_enable_upll_clock
                0x000804a0       0x18 /Applications/Arduino.app/Contents/Resources/Java/hardware/arduino/sam/variants/arduino_due_x/libsam_sam3x8e_gcc_rel.a(pmc.o)
                0x000804a0                pmc_enable_upll_clock
 .text.pmc_enable_periph_clk
                0x000804b8       0x48 /Applications/Arduino.app/Contents/Resources/Java/hardware/arduino/sam/variants/arduino_due_x/libsam_sam3x8e_gcc_rel.a(pmc.o)
                0x000804b8                pmc_enable_periph_clk
 .text.pmc_disable_periph_clk
                0x00080500       0x48 /Applications/Arduino.app/Contents/Resources/Java/hardware/arduino/sam/variants/arduino_due_x/libsam_sam3x8e_gcc_rel.a(pmc.o)
                0x00080500                pmc_disable_periph_clk
 .text.pmc_switch_udpck_to_upllck
                0x00080548       0x14 /Applications/Arduino.app/Contents/Resources/Java/hardware/arduino/sam/variants/arduino_due_x/libsam_sam3x8e_gcc_rel.a(pmc.o)
                0x00080548                pmc_switch_udpck_to_upllck
 .text.pmc_enable_udpck
                0x0008055c        0xc /Applications/Arduino.app/Contents/Resources/Java/hardware/arduino/sam/variants/arduino_due_x/libsam_sam3x8e_gcc_rel.a(pmc.o)
                0x0008055c                pmc_enable_udpck
 .text.WDT_Disable
                0x00080568        0x8 /Applications/Arduino.app/Contents/Resources/Java/hardware/arduino/sam/variants/arduino_due_x/libsam_sam3x8e_gcc_rel.a(wdt.o)
                0x00080568                WDT_Disable
 .text.SystemInit
                0x00080570       0x9c /Applications/Arduino.app/Contents/Resources/Java/hardware/arduino/sam/variants/arduino_due_x/libsam_sam3x8e_gcc_rel.a(system_sam3xa.o)
                0x00080570                SystemInit
 .text.Reset_Handler
                0x0008060c       0x70 /Applications/Arduino.app/Contents/Resources/Java/hardware/arduino/sam/variants/arduino_due_x/libsam_sam3x8e_gcc_rel.a(startup_sam3xa.o)
                0x0008060c                Reset_Handler
 .text.adc_init
                0x0008067c       0xa0 /Applications/Arduino.app/Contents/Resources/Java/hardware/arduino/sam/variants/arduino_due_x/libsam_sam3x8e_gcc_rel.a(adc.o)
                0x0008067c                adc_init
 .text.adc_configure_trigger
                0x0008071c       0x10 /Applications/Arduino.app/Contents/Resources/Java/hardware/arduino/sam/variants/arduino_due_x/libsam_sam3x8e_gcc_rel.a(adc.o)
                0x0008071c                adc_configure_trigger
 .text.adc_configure_timing
                0x0008072c       0x1a /Applications/Arduino.app/Contents/Resources/Java/hardware/arduino/sam/variants/arduino_due_x/libsam_sam3x8e_gcc_rel.a(adc.o)
                0x0008072c                adc_configure_timing
 .text.adc_disable_all_channel
                0x00080746        0x8 /Applications/Arduino.app/Contents/Resources/Java/hardware/arduino/sam/variants/arduino_due_x/libsam_sam3x8e_gcc_rel.a(adc.o)
                0x00080746                adc_disable_all_channel
 .text.adc_disable_interrupt
                0x0008074e        0x4 /Applications/Arduino.app/Contents/Resources/Java/hardware/arduino/sam/variants/arduino_due_x/libsam_sam3x8e_gcc_rel.a(adc.o)
                0x0008074e                adc_disable_interrupt
 *fill*         0x00080752        0x2 00
 .text.UOTGHS_Handler
                0x00080754       0x10 /Applications/Arduino.app/Contents/Resources/Java/hardware/arduino/sam/variants/arduino_due_x/libsam_sam3x8e_gcc_rel.a(uotghs.o)
                0x00080754                UOTGHS_Handler
 .text.main     0x00080764       0x28 Builds/main.o
                0x00080764                main
 .text.PIOA_Handler
                0x0008078c       0x2c Builds/embeddedcomputing.a(WInterrupts.o)
                0x0008078c                PIOA_Handler
 .text.PIOB_Handler
                0x000807b8       0x2c Builds/embeddedcomputing.a(WInterrupts.o)
                0x000807b8                PIOB_Handler
 .text.PIOC_Handler
                0x000807e4       0x2c Builds/embeddedcomputing.a(WInterrupts.o)
                0x000807e4                PIOC_Handler
 .text.PIOD_Handler
                0x00080810       0x2c Builds/embeddedcomputing.a(WInterrupts.o)
                0x00080810                PIOD_Handler
 .text.__halt   0x0008083c        0x2 Builds/embeddedcomputing.a(cortex_handlers.o)
                0x0008083c                SPI0_Handler
                0x0008083c                DebugMon_Handler
                0x0008083c                DMAC_Handler
                0x0008083c                TRNG_Handler
                0x0008083c                HardFault_Handler
                0x0008083c                TC2_Handler
                0x0008083c                TWI1_Handler
                0x0008083c                NMI_Handler
                0x0008083c                TC7_Handler
                0x0008083c                ADC_Handler
                0x0008083c                SMC_Handler
                0x0008083c                RTT_Handler
                0x0008083c                EFC1_Handler
                0x0008083c                RTC_Handler
                0x0008083c                UsageFault_Handler
                0x0008083c                TC6_Handler
                0x0008083c                WDT_Handler
                0x0008083c                CAN0_Handler
                0x0008083c                TC4_Handler
                0x0008083c                TC1_Handler
                0x0008083c                HSMCI_Handler
                0x0008083c                TC3_Handler
                0x0008083c                TWI0_Handler
                0x0008083c                SSC_Handler
                0x0008083c                EFC0_Handler
                0x0008083c                PMC_Handler
                0x0008083c                PWM_Handler
                0x0008083c                CAN1_Handler
                0x0008083c                MemManage_Handler
                0x0008083c                SUPC_Handler
                0x0008083c                TC8_Handler
                0x0008083c                USART2_Handler
                0x0008083c                EMAC_Handler
                0x0008083c                BusFault_Handler
                0x0008083c                RSTC_Handler
                0x0008083c                TC0_Handler
                0x0008083c                TC5_Handler
                0x0008083c                DACC_Handler
 .text.SysTick_Handler
                0x0008083e       0x16 Builds/embeddedcomputing.a(cortex_handlers.o)
                0x0008083e                SysTick_Handler
 .text.PendSV_Handler
                0x00080854        0x4 Builds/embeddedcomputing.a(cortex_handlers.o)
                0x00080854                PendSV_Handler
 .text.SVC_Handler
                0x00080858        0x4 Builds/embeddedcomputing.a(cortex_handlers.o)
                0x00080858                SVC_Handler
 .text.__empty  0x0008085c        0x2 Builds/embeddedcomputing.a(hooks.o)
                0x0008085c                yield
 .text.__false  0x0008085e        0x4 Builds/embeddedcomputing.a(hooks.o)
                0x0008085e                sysTickHook
 .text.__halt   0x00080862        0x2 Builds/embeddedcomputing.a(hooks.o)
                0x00080862                pendSVHook
                0x00080862                svcHook
 .text.delay    0x00080864       0x1c Builds/embeddedcomputing.a(wiring.o)
                0x00080864                delay
 .text.analogOutputInit
                0x00080880       0x14 Builds/embeddedcomputing.a(wiring_analog.o)
                0x00080880                analogOutputInit
 .text.digitalWrite
                0x00080894       0x48 Builds/embeddedcomputing.a(wiring_digital.o)
                0x00080894                digitalWrite
 .text.initiateReset
                0x000808dc        0xc Builds/embeddedcomputing.a(Reset.o)
                0x000808dc                initiateReset
 .text.cancelReset
                0x000808e8       0x10 Builds/embeddedcomputing.a(Reset.o)
                0x000808e8                cancelReset
 .text.tickReset
                0x000808f8       0x20 Builds/embeddedcomputing.a(Reset.o)
                0x000808f8                tickReset
 .text._ZN10RingBuffer10store_charEh
                0x00080918       0x16 Builds/embeddedcomputing.a(RingBuffer.o)
                0x00080918                _ZN10RingBuffer10store_charEh
 .text._ZN10RingBufferC1Ev
                0x0008092e       0x16 Builds/embeddedcomputing.a(RingBuffer.o)
                0x0008092e                _ZN10RingBufferC1Ev
 .text._ZN9UARTClasscvbEv
                0x00080944        0x4 Builds/embeddedcomputing.a(UARTClass.o)
                0x00080944                _ZN9UARTClasscvbEv
 .text._ZN9UARTClassC1EP4Uart4IRQnmP10RingBuffer
                0x00080948       0x24 Builds/embeddedcomputing.a(UARTClass.o)
                0x00080948                _ZN9UARTClassC1EP4Uart4IRQnmP10RingBuffer
 .text._ZN9UARTClass9availableEv
                0x0008096c        0xe Builds/embeddedcomputing.a(UARTClass.o)
                0x0008096c                _ZN9UARTClass9availableEv
 .text._ZN9UARTClass4peekEv
                0x0008097a       0x12 Builds/embeddedcomputing.a(UARTClass.o)
                0x0008097a                _ZN9UARTClass4peekEv
 .text._ZN9UARTClass4readEv
                0x0008098c       0x1c Builds/embeddedcomputing.a(UARTClass.o)
                0x0008098c                _ZN9UARTClass4readEv
 .text._ZN9UARTClass5flushEv
                0x000809a8        0xc Builds/embeddedcomputing.a(UARTClass.o)
                0x000809a8                _ZN9UARTClass5flushEv
 .text._ZN9UARTClass5writeEh
                0x000809b4       0x10 Builds/embeddedcomputing.a(UARTClass.o)
                0x000809b4                _ZN9UARTClass5writeEh
 .text._ZN9UARTClass10IrqHandlerEv
                0x000809c4       0x2a Builds/embeddedcomputing.a(UARTClass.o)
                0x000809c4                _ZN9UARTClass10IrqHandlerEv
 *fill*         0x000809ee        0x2 00
 .text._ZN9UARTClass3endEv
                0x000809f0       0x38 Builds/embeddedcomputing.a(UARTClass.o)
                0x000809f0                _ZN9UARTClass3endEv
 .text._ZN9UARTClass5beginEm
                0x00080a28       0x5c Builds/embeddedcomputing.a(UARTClass.o)
                0x00080a28                _ZN9UARTClass5beginEm
 .text._ZN10USARTClasscvbEv
                0x00080a84        0x4 Builds/embeddedcomputing.a(USARTClass.o)
                0x00080a84                _ZN10USARTClasscvbEv
 .text._ZN10USARTClassC1EP5Usart4IRQnmP10RingBuffer
                0x00080a88       0x24 Builds/embeddedcomputing.a(USARTClass.o)
                0x00080a88                _ZN10USARTClassC1EP5Usart4IRQnmP10RingBuffer
 .text._ZN10USARTClass9availableEv
                0x00080aac        0xe Builds/embeddedcomputing.a(USARTClass.o)
                0x00080aac                _ZN10USARTClass9availableEv
 .text._ZN10USARTClass4peekEv
                0x00080aba       0x12 Builds/embeddedcomputing.a(USARTClass.o)
                0x00080aba                _ZN10USARTClass4peekEv
 .text._ZN10USARTClass4readEv
                0x00080acc       0x1c Builds/embeddedcomputing.a(USARTClass.o)
                0x00080acc                _ZN10USARTClass4readEv
 .text._ZN10USARTClass5flushEv
                0x00080ae8        0xc Builds/embeddedcomputing.a(USARTClass.o)
                0x00080ae8                _ZN10USARTClass5flushEv
 .text._ZN10USARTClass5writeEh
                0x00080af4       0x10 Builds/embeddedcomputing.a(USARTClass.o)
                0x00080af4                _ZN10USARTClass5writeEh
 .text._ZN10USARTClass10IrqHandlerEv
                0x00080b04       0x2a Builds/embeddedcomputing.a(USARTClass.o)
                0x00080b04                _ZN10USARTClass10IrqHandlerEv
 *fill*         0x00080b2e        0x2 00
 .text._ZN10USARTClass3endEv
                0x00080b30       0x38 Builds/embeddedcomputing.a(USARTClass.o)
                0x00080b30                _ZN10USARTClass3endEv
 .text._ZN10USARTClass5beginEm
                0x00080b68       0x5c Builds/embeddedcomputing.a(USARTClass.o)
                0x00080b68                _ZN10USARTClass5beginEm
 .text._Z16USBD_InitControli
                0x00080bc4       0x14 Builds/embeddedcomputing.a(USBCore.o)
                0x00080bc4                _Z16USBD_InitControli
 .text._ZL11USB_SendZlpv
                0x00080bd8       0x24 Builds/embeddedcomputing.a(USBCore.o)
 .text._ZN10USBDevice_6attachEv
                0x00080bfc       0x20 Builds/embeddedcomputing.a(USBCore.o)
                0x00080bfc                _ZN10USBDevice_6attachEv
 .text._ZN10USBDevice_C1Ev
                0x00080c1c       0x24 Builds/embeddedcomputing.a(USBCore.o)
                0x00080c1c                _ZN10USBDevice_C1Ev
 .text._Z14USBD_Availablem
                0x00080c40       0x2c Builds/embeddedcomputing.a(USBCore.o)
                0x00080c40                _Z14USBD_Availablem
 .text._Z10USBD_Flushm
                0x00080c6c       0x16 Builds/embeddedcomputing.a(USBCore.o)
                0x00080c6c                _Z10USBD_Flushm
 .text._Z24USBD_SendOtherInterfacesv
                0x00080c82       0x1c Builds/embeddedcomputing.a(USBCore.o)
                0x00080c82                _Z24USBD_SendOtherInterfacesv
 .text._Z19USBD_SendInterfacesv
                0x00080c9e       0x1c Builds/embeddedcomputing.a(USBCore.o)
                0x00080c9e                _Z19USBD_SendInterfacesv
 .text._Z26USBD_ClassInterfaceRequestR5Setup
                0x00080cba       0x14 Builds/embeddedcomputing.a(USBCore.o)
                0x00080cba                _Z26USBD_ClassInterfaceRequestR5Setup
 .text._Z16USBD_RecvControlPvm
                0x00080cce       0x1c Builds/embeddedcomputing.a(USBCore.o)
                0x00080cce                _Z16USBD_RecvControlPvm
 *fill*         0x00080cea        0x2 00
 .text._Z16USBD_SendControlhPKvm
                0x00080cec       0x40 Builds/embeddedcomputing.a(USBCore.o)
                0x00080cec                _Z16USBD_SendControlhPKvm
 .text._ZL24USB_SendStringDescriptorPKhi
                0x00080d2c       0x42 Builds/embeddedcomputing.a(USBCore.o)
 *fill*         0x00080d6e        0x2 00
 .text._ZL7USB_ISRv
                0x00080d70      0x438 Builds/embeddedcomputing.a(USBCore.o)
 .text._Z9USBD_SendmPKvm
                0x000811a8       0x4c Builds/embeddedcomputing.a(USBCore.o)
                0x000811a8                _Z9USBD_SendmPKvm
 .text._Z9USBD_RecvmPvm
                0x000811f4       0x7c Builds/embeddedcomputing.a(USBCore.o)
                0x000811f4                _Z9USBD_RecvmPvm
 .text._Z9USBD_Recvm
                0x00081270       0x1e Builds/embeddedcomputing.a(USBCore.o)
                0x00081270                _Z9USBD_Recvm
 *fill*         0x0008128e        0x2 00
 .text._GLOBAL__I_TxLEDPulse
                0x00081290        0xc Builds/embeddedcomputing.a(USBCore.o)
 .text._ZN5Print5writeEPKhj
                0x0008129c       0x2e Builds/embeddedcomputing.a(Print.o)
                0x0008129c                _ZN5Print5writeEPKhj
 *fill*         0x000812ca        0x2 00
 .text._ZN7Serial_9availableEv
                0x000812cc       0x18 Builds/embeddedcomputing.a(CDC.o)
                0x000812cc                _ZN7Serial_9availableEv
 .text._ZN7Serial_4peekEv
                0x000812e4       0x20 Builds/embeddedcomputing.a(CDC.o)
                0x000812e4                _ZN7Serial_4peekEv
 .text._ZN7Serial_5writeEh
                0x00081304       0x14 Builds/embeddedcomputing.a(CDC.o)
                0x00081304                _ZN7Serial_5writeEh
 .text._ZN7Serial_5writeEPKhj
                0x00081318       0x28 Builds/embeddedcomputing.a(CDC.o)
                0x00081318                _ZN7Serial_5writeEPKhj
 .text._ZN7Serial_5flushEv
                0x00081340        0x6 Builds/embeddedcomputing.a(CDC.o)
                0x00081340                _ZN7Serial_5flushEv
 *fill*         0x00081346        0x2 00
 .text._ZN7Serial_4readEv
                0x00081348       0x44 Builds/embeddedcomputing.a(CDC.o)
                0x00081348                _ZN7Serial_4readEv
 .text._ZN7Serial_6acceptEv
                0x0008138c       0x6c Builds/embeddedcomputing.a(CDC.o)
                0x0008138c                _ZN7Serial_6acceptEv
 .text._Z21CDC_GetOtherInterfacePh
                0x000813f8       0x14 Builds/embeddedcomputing.a(CDC.o)
                0x000813f8                _Z21CDC_GetOtherInterfacePh
 .text._Z16CDC_GetInterfacePh
                0x0008140c       0x14 Builds/embeddedcomputing.a(CDC.o)
                0x0008140c                _Z16CDC_GetInterfacePh
 .text._Z9CDC_SetupR5Setup
                0x00081420       0x60 Builds/embeddedcomputing.a(CDC.o)
                0x00081420                _Z9CDC_SetupR5Setup
 .text._GLOBAL__I_cdc_rx_buffer
                0x00081480       0x1c Builds/embeddedcomputing.a(CDC.o)
 .text._Z9HID_SetupR5Setup
                0x0008149c       0x44 Builds/embeddedcomputing.a(HID.o)
                0x0008149c                _Z9HID_SetupR5Setup
 .text._ZN6Mouse_C1Ev
                0x000814e0        0x6 Builds/embeddedcomputing.a(HID.o)
                0x000814e0                _ZN6Mouse_C1Ev
 *fill*         0x000814e6        0x2 00
 .text._ZN9Keyboard_C1Ev
                0x000814e8       0x10 Builds/embeddedcomputing.a(HID.o)
                0x000814e8                _ZN9Keyboard_C1Ev
 .text._ZN9Keyboard_5writeEh
                0x000814f8       0x1c Builds/embeddedcomputing.a(HID.o)
                0x000814f8                _ZN9Keyboard_5writeEh
 .text._Z14HID_SendReporthPKvm
                0x00081514       0x2c Builds/embeddedcomputing.a(HID.o)
                0x00081514                _Z14HID_SendReporthPKvm
 .text._ZN9Keyboard_10sendReportEP9KeyReport
                0x00081540        0x8 Builds/embeddedcomputing.a(HID.o)
                0x00081540                _ZN9Keyboard_10sendReportEP9KeyReport
 .text._ZN9Keyboard_10releaseAllEv
                0x00081548       0x18 Builds/embeddedcomputing.a(HID.o)
                0x00081548                _ZN9Keyboard_10releaseAllEv
 .text._ZN9Keyboard_7releaseEh
                0x00081560       0x74 Builds/embeddedcomputing.a(HID.o)
                0x00081560                _ZN9Keyboard_7releaseEh
 .text._ZN9Keyboard_5pressEh
                0x000815d4       0x9c Builds/embeddedcomputing.a(HID.o)
                0x000815d4                _ZN9Keyboard_5pressEh
 .text._Z17HID_GetDescriptori
                0x00081670       0x10 Builds/embeddedcomputing.a(HID.o)
                0x00081670                _Z17HID_GetDescriptori
 .text._Z16HID_GetInterfacePh
                0x00081680       0x14 Builds/embeddedcomputing.a(HID.o)
                0x00081680                _Z16HID_GetInterfacePh
 .text._GLOBAL__I_Mouse
                0x00081694       0x1c Builds/embeddedcomputing.a(HID.o)
 .text.TimeTick_Increment
                0x000816b0       0x10 /Applications/Arduino.app/Contents/Resources/Java/hardware/arduino/sam/variants/arduino_due_x/libsam_sam3x8e_gcc_rel.a(timetick.o)
                0x000816b0                TimeTick_Increment
 .text.GetTickCount
                0x000816c0        0xc /Applications/Arduino.app/Contents/Resources/Java/hardware/arduino/sam/variants/arduino_due_x/libsam_sam3x8e_gcc_rel.a(timetick.o)
                0x000816c0                GetTickCount
 .text.UDD_SetStack
                0x000816cc        0xc /Applications/Arduino.app/Contents/Resources/Java/hardware/arduino/sam/variants/arduino_due_x/libsam_sam3x8e_gcc_rel.a(uotghs_device.o)
                0x000816cc                UDD_SetStack
 .text.UDD_Init
                0x000816d8       0xd0 /Applications/Arduino.app/Contents/Resources/Java/hardware/arduino/sam/variants/arduino_due_x/libsam_sam3x8e_gcc_rel.a(uotghs_device.o)
                0x000816d8                UDD_Init
 .text.UDD_Attach
                0x000817a8       0x4c /Applications/Arduino.app/Contents/Resources/Java/hardware/arduino/sam/variants/arduino_due_x/libsam_sam3x8e_gcc_rel.a(uotghs_device.o)
                0x000817a8                UDD_Attach
 .text.UDD_InitEP
                0x000817f4       0x30 /Applications/Arduino.app/Contents/Resources/Java/hardware/arduino/sam/variants/arduino_due_x/libsam_sam3x8e_gcc_rel.a(uotghs_device.o)
                0x000817f4                UDD_InitEP
 .text.UDD_InitEndpoints
                0x00081824       0x3c /Applications/Arduino.app/Contents/Resources/Java/hardware/arduino/sam/variants/arduino_due_x/libsam_sam3x8e_gcc_rel.a(uotghs_device.o)
                0x00081824                UDD_InitEndpoints
 .text.UDD_WaitIN
                0x00081860       0x14 /Applications/Arduino.app/Contents/Resources/Java/hardware/arduino/sam/variants/arduino_due_x/libsam_sam3x8e_gcc_rel.a(uotghs_device.o)
                0x00081860                UDD_WaitIN
 .text.UDD_WaitOUT
                0x00081874       0x14 /Applications/Arduino.app/Contents/Resources/Java/hardware/arduino/sam/variants/arduino_due_x/libsam_sam3x8e_gcc_rel.a(uotghs_device.o)
                0x00081874                UDD_WaitOUT
 .text.UDD_ClearIN
                0x00081888       0x18 /Applications/Arduino.app/Contents/Resources/Java/hardware/arduino/sam/variants/arduino_due_x/libsam_sam3x8e_gcc_rel.a(uotghs_device.o)
                0x00081888                UDD_ClearIN
 .text.UDD_ClearOUT
                0x000818a0       0x18 /Applications/Arduino.app/Contents/Resources/Java/hardware/arduino/sam/variants/arduino_due_x/libsam_sam3x8e_gcc_rel.a(uotghs_device.o)
                0x000818a0                UDD_ClearOUT
 .text.UDD_ReceivedSetupInt
                0x000818b8       0x10 /Applications/Arduino.app/Contents/Resources/Java/hardware/arduino/sam/variants/arduino_due_x/libsam_sam3x8e_gcc_rel.a(uotghs_device.o)
                0x000818b8                UDD_ReceivedSetupInt
 .text.UDD_ClearSetupInt
                0x000818c8       0x10 /Applications/Arduino.app/Contents/Resources/Java/hardware/arduino/sam/variants/arduino_due_x/libsam_sam3x8e_gcc_rel.a(uotghs_device.o)
                0x000818c8                UDD_ClearSetupInt
 .text.UDD_Send
                0x000818d8       0x90 /Applications/Arduino.app/Contents/Resources/Java/hardware/arduino/sam/variants/arduino_due_x/libsam_sam3x8e_gcc_rel.a(uotghs_device.o)
                0x000818d8                UDD_Send
 .text.UDD_Send8
                0x00081968       0x28 /Applications/Arduino.app/Contents/Resources/Java/hardware/arduino/sam/variants/arduino_due_x/libsam_sam3x8e_gcc_rel.a(uotghs_device.o)
                0x00081968                UDD_Send8
 .text.UDD_Recv8
                0x00081990       0x28 /Applications/Arduino.app/Contents/Resources/Java/hardware/arduino/sam/variants/arduino_due_x/libsam_sam3x8e_gcc_rel.a(uotghs_device.o)
                0x00081990                UDD_Recv8
 .text.UDD_Recv
                0x000819b8       0x34 /Applications/Arduino.app/Contents/Resources/Java/hardware/arduino/sam/variants/arduino_due_x/libsam_sam3x8e_gcc_rel.a(uotghs_device.o)
                0x000819b8                UDD_Recv
 .text.UDD_Stall
                0x000819ec       0x14 /Applications/Arduino.app/Contents/Resources/Java/hardware/arduino/sam/variants/arduino_due_x/libsam_sam3x8e_gcc_rel.a(uotghs_device.o)
                0x000819ec                UDD_Stall
 .text.UDD_FifoByteCount
                0x00081a00       0x1c /Applications/Arduino.app/Contents/Resources/Java/hardware/arduino/sam/variants/arduino_due_x/libsam_sam3x8e_gcc_rel.a(uotghs_device.o)
                0x00081a00                UDD_FifoByteCount
 .text.UDD_ReleaseRX
                0x00081a1c       0x2c /Applications/Arduino.app/Contents/Resources/Java/hardware/arduino/sam/variants/arduino_due_x/libsam_sam3x8e_gcc_rel.a(uotghs_device.o)
                0x00081a1c                UDD_ReleaseRX
 .text.UDD_ReleaseTX
                0x00081a48       0x2c /Applications/Arduino.app/Contents/Resources/Java/hardware/arduino/sam/variants/arduino_due_x/libsam_sam3x8e_gcc_rel.a(uotghs_device.o)
                0x00081a48                UDD_ReleaseTX
 .text.UDD_SetAddress
                0x00081a74       0x20 /Applications/Arduino.app/Contents/Resources/Java/hardware/arduino/sam/variants/arduino_due_x/libsam_sam3x8e_gcc_rel.a(uotghs_device.o)
                0x00081a74                UDD_SetAddress
 .text.__libc_init_array
                0x00081a94       0x4c /Applications/Arduino.app/Contents/Resources/Java/hardware/tools/g++_arm_none_eabi/bin/../lib/gcc/arm-none-eabi/4.4.1/../../../../arm-none-eabi/lib/thumb2/libc.a(lib_a-init.o)
                0x00081a94                __libc_init_array
 .text.memset   0x00081ae0       0x12 /Applications/Arduino.app/Contents/Resources/Java/hardware/tools/g++_arm_none_eabi/bin/../lib/gcc/arm-none-eabi/4.4.1/../../../../arm-none-eabi/lib/thumb2/libc.a(lib_a-memset.o)
                0x00081ae0                memset
 *(.glue_7t)
 .glue_7t       0x00000000        0x0 linker stubs
 *(.glue_7)
 .glue_7        0x00000000        0x0 linker stubs
 *(.rodata .rodata* .gnu.linkonce.r.*)
 *fill*         0x00081af2        0x2 00
 .rodata.g_APinDescription
                0x00081af4      0xa2c Builds/variant.o
                0x00081af4                g_APinDescription
 .rodata.C.0.8141
                0x00082520       0x40 /Applications/Arduino.app/Contents/Resources/Java/hardware/arduino/sam/variants/arduino_due_x/libsam_sam3x8e_gcc_rel.a(adc.o)
 .rodata._ZTV9UARTClass
                0x00082560       0x30 Builds/embeddedcomputing.a(UARTClass.o)
                0x00082560                _ZTV9UARTClass
 .rodata._ZTV10USARTClass
                0x00082590       0x30 Builds/embeddedcomputing.a(USARTClass.o)
                0x00082590                _ZTV10USARTClass
 .rodata.USB_DeviceDescriptorA
                0x000825c0       0x14 Builds/embeddedcomputing.a(USBCore.o)
                0x000825c0                USB_DeviceDescriptorA
 .rodata.USB_DeviceDescriptor
                0x000825d4       0x14 Builds/embeddedcomputing.a(USBCore.o)
                0x000825d4                USB_DeviceDescriptor
 .rodata._ZL9EndPoints
                0x000825e8       0x14 Builds/embeddedcomputing.a(USBCore.o)
 .rodata.STRING_LANGUAGE
                0x000825fc        0x4 Builds/embeddedcomputing.a(USBCore.o)
                0x000825fc                STRING_LANGUAGE
 .rodata._ZL18test_packet_buffer
                0x00082600       0x38 Builds/embeddedcomputing.a(USBCore.o)
 .rodata.STRING_PRODUCT
                0x00082638        0xc Builds/embeddedcomputing.a(USBCore.o)
                0x00082638                STRING_PRODUCT
 .rodata.STRING_MANUFACTURER
                0x00082644        0xc Builds/embeddedcomputing.a(USBCore.o)
                0x00082644                STRING_MANUFACTURER
 .rodata._ZL19USB_DeviceQualifier
                0x00082650       0x14 Builds/embeddedcomputing.a(USBCore.o)
 *fill*         0x00082664        0x4 00
 .rodata._ZTV7Serial_
                0x00082668       0x28 Builds/embeddedcomputing.a(CDC.o)
                0x00082668                _ZTV7Serial_
 .rodata._ZL18_cdcOtherInterface
                0x00082690       0x44 Builds/embeddedcomputing.a(CDC.o)
 .rodata._ZL13_cdcInterface
                0x000826d4       0x44 Builds/embeddedcomputing.a(CDC.o)
 .rodata._ZTV9Keyboard_
                0x00082718       0x20 Builds/embeddedcomputing.a(HID.o)
                0x00082718                _ZTV9Keyboard_
 .rodata._asciimap
                0x00082738       0x80 Builds/embeddedcomputing.a(HID.o)
                0x00082738                _asciimap
 .rodata._hidInterface
                0x000827b8       0x1c Builds/embeddedcomputing.a(HID.o)
                0x000827b8                _hidInterface
 .rodata._hidReportDescriptor
                0x000827d4       0x68 Builds/embeddedcomputing.a(HID.o)
                0x000827d4                _hidReportDescriptor
 *(.ARM.extab* .gnu.linkonce.armextab.*)
                0x0008283c                . = ALIGN (0x4)
 *(.init)
 .init          0x0008283c        0x4 /Applications/Arduino.app/Contents/Resources/Java/hardware/tools/g++_arm_none_eabi/bin/../lib/gcc/arm-none-eabi/4.4.1/thumb2/crti.o
                0x0008283c                _init
 .init          0x00082840        0x8 /Applications/Arduino.app/Contents/Resources/Java/hardware/tools/g++_arm_none_eabi/bin/../lib/gcc/arm-none-eabi/4.4.1/thumb2/crtn.o
                0x00082848                . = ALIGN (0x4)
                0x00082848                __preinit_array_start = .
 *(.preinit_array)
                0x00082848                __preinit_array_end = .
                0x00082848                . = ALIGN (0x4)
                0x00082848                __init_array_start = .
 *(SORT(.init_array.*))
 *(.init_array)
 .init_array    0x00082848        0x4 /Applications/Arduino.app/Contents/Resources/Java/hardware/tools/g++_arm_none_eabi/bin/../lib/gcc/arm-none-eabi/4.4.1/thumb2/crtbegin.o
 .init_array    0x0008284c        0x4 Builds/variant.o
 .init_array    0x00082850        0x4 Builds/embeddedcomputing.a(USBCore.o)
 .init_array    0x00082854        0x4 Builds/embeddedcomputing.a(CDC.o)
 .init_array    0x00082858        0x4 Builds/embeddedcomputing.a(HID.o)
                0x0008285c                __init_array_end = .
                0x0008285c                . = ALIGN (0x4)
 *crtbegin.o(.ctors)
 *(EXCLUDE_FILE(*crtend.o) .ctors)
 *(SORT(.ctors.*))
 *crtend.o(.ctors)
                0x0008285c                . = ALIGN (0x4)
 *(.fini)
 .fini          0x0008285c        0x4 /Applications/Arduino.app/Contents/Resources/Java/hardware/tools/g++_arm_none_eabi/bin/../lib/gcc/arm-none-eabi/4.4.1/thumb2/crti.o
                0x0008285c                _fini
 .fini          0x00082860        0x8 /Applications/Arduino.app/Contents/Resources/Java/hardware/tools/g++_arm_none_eabi/bin/../lib/gcc/arm-none-eabi/4.4.1/thumb2/crtn.o
                0x00082868                . = ALIGN (0x4)
                0x00082868                __fini_array_start = .
 *(.fini_array)
 .fini_array    0x00082868        0x4 /Applications/Arduino.app/Contents/Resources/Java/hardware/tools/g++_arm_none_eabi/bin/../lib/gcc/arm-none-eabi/4.4.1/thumb2/crtbegin.o
 *(SORT(.fini_array.*))
                0x0008286c                __fini_array_end = .
 *crtbegin.o(.dtors)
 *(EXCLUDE_FILE(*crtend.o) .dtors)
 *(SORT(.dtors.*))
 *crtend.o(.dtors)
                0x0008286c                . = ALIGN (0x4)
                0x0008286c                _efixed = .
                0x0008286c                PROVIDE (__exidx_start, .)

.jcr            0x0008286c        0x0
 .jcr           0x0008286c        0x0 /Applications/Arduino.app/Contents/Resources/Java/hardware/tools/g++_arm_none_eabi/bin/../lib/gcc/arm-none-eabi/4.4.1/thumb2/crtbegin.o

.vfp11_veneer   0x0008286c        0x0
 .vfp11_veneer  0x00000000        0x0 linker stubs

.v4_bx          0x0008286c        0x0
 .v4_bx         0x00000000        0x0 linker stubs

.ARM.exidx
 *(.ARM.exidx* .gnu.linkonce.armexidx.*)
                0x0008286c                PROVIDE (__exidx_end, .)
                0x0008286c                . = ALIGN (0x4)
                0x0008286c                _etext = .

.relocate       0x20070000       0x4c load address 0x0008286c
                0x20070000                . = ALIGN (0x4)
                0x20070000                _srelocate = .
 *(.ramfunc .ramfunc.*)
 .ramfunc       0x20070000       0x34 Builds/embeddedcomputing.a(Reset.o)
                0x20070000                banzai
 *(.data .data.*)
 .data.SystemCoreClock
                0x20070034        0x4 /Applications/Arduino.app/Contents/Resources/Java/hardware/arduino/sam/variants/arduino_due_x/libsam_sam3x8e_gcc_rel.a(system_sam3xa.o)
                0x20070034                SystemCoreClock
 .data._ZL5ticks
                0x20070038        0x4 Builds/embeddedcomputing.a(Reset.o)
 .data._ZL12_usbLineInfo
                0x2007003c        0x8 Builds/embeddedcomputing.a(CDC.o)
 .data._hid_protocol
                0x20070044        0x1 Builds/embeddedcomputing.a(HID.o)
                0x20070044                _hid_protocol
 .data._hid_idle
                0x20070045        0x1 Builds/embeddedcomputing.a(HID.o)
                0x20070045                _hid_idle
 *fill*         0x20070046        0x2 00
 .data.g_interrupt_enabled
                0x20070048        0x4 /Applications/Arduino.app/Contents/Resources/Java/hardware/arduino/sam/variants/arduino_due_x/libsam_sam3x8e_gcc_rel.a(interrupt_sam_nvic.o)
                0x20070048                g_interrupt_enabled
                0x2007004c                . = ALIGN (0x4)
                0x2007004c                _erelocate = .

.bss            0x2007004c      0x6a4 load address 0x000828b8
                0x2007004c                . = ALIGN (0x4)
                0x2007004c                _sbss = .
                0x2007004c                _szero = .
 *(.bss .bss.*)
 .bss           0x2007004c        0x1 /Applications/Arduino.app/Contents/Resources/Java/hardware/tools/g++_arm_none_eabi/bin/../lib/gcc/arm-none-eabi/4.4.1/thumb2/crtbegin.o
 *fill*         0x2007004d        0x3 00
 .bss.Serial    0x20070050       0x20 Builds/variant.o
                0x20070050                Serial
 .bss.rx_buffer1
                0x20070070       0x48 Builds/variant.o
                0x20070070                rx_buffer1
 .bss.Serial1   0x200700b8       0x20 Builds/variant.o
                0x200700b8                Serial1
 .bss.Serial2   0x200700d8       0x20 Builds/variant.o
                0x200700d8                Serial2
 .bss.Serial3   0x200700f8       0x20 Builds/variant.o
                0x200700f8                Serial3
 .bss.rx_buffer2
                0x20070118       0x48 Builds/variant.o
                0x20070118                rx_buffer2
 .bss.rx_buffer3
                0x20070160       0x48 Builds/variant.o
                0x20070160                rx_buffer3
 .bss.rx_buffer4
                0x200701a8       0x48 Builds/variant.o
                0x200701a8                rx_buffer4
 .bss.gpf_isr   0x200701f0        0x4 /Applications/Arduino.app/Contents/Resources/Java/hardware/arduino/sam/variants/arduino_due_x/libsam_sam3x8e_gcc_rel.a(uotghs.o)
                0x200701f0                gpf_isr
 .bss.callbacksPioA
                0x200701f4       0x80 Builds/embeddedcomputing.a(WInterrupts.o)
 .bss.callbacksPioB
                0x20070274       0x80 Builds/embeddedcomputing.a(WInterrupts.o)
 .bss.callbacksPioC
                0x200702f4       0x80 Builds/embeddedcomputing.a(WInterrupts.o)
 .bss.callbacksPioD
                0x20070374       0x80 Builds/embeddedcomputing.a(WInterrupts.o)
 .bss.pinEnabled
                0x200703f4       0x50 Builds/embeddedcomputing.a(wiring_analog.o)
 .bss._ZL14isEndpointHalt
                0x20070444        0x1 Builds/embeddedcomputing.a(USBCore.o)
 *fill*         0x20070445        0x3 00
 .bss._cmark    0x20070448        0x4 Builds/embeddedcomputing.a(USBCore.o)
                0x20070448                _cmark
 .bss._cend     0x2007044c        0x4 Builds/embeddedcomputing.a(USBCore.o)
                0x2007044c                _cend
 .bss._cdcComposite
                0x20070450        0x4 Builds/embeddedcomputing.a(USBCore.o)
                0x20070450                _cdcComposite
 .bss._usbInitialized
                0x20070454        0x4 Builds/embeddedcomputing.a(USBCore.o)
                0x20070454                _usbInitialized
 .bss.USBDevice
                0x20070458        0x4 Builds/embeddedcomputing.a(USBCore.o)
                0x20070458                USBDevice
 .bss._usbSetInterface
                0x2007045c        0x4 Builds/embeddedcomputing.a(USBCore.o)
                0x2007045c                _usbSetInterface
 .bss._ZL21isRemoteWakeUpEnabled
                0x20070460        0x1 Builds/embeddedcomputing.a(USBCore.o)
 *fill*         0x20070461        0x3 00
 .bss._usbConfiguration
                0x20070464        0x4 Builds/embeddedcomputing.a(USBCore.o)
                0x20070464                _usbConfiguration
 .bss.cdc_rx_buffer
                0x20070468      0x208 Builds/embeddedcomputing.a(CDC.o)
                0x20070468                cdc_rx_buffer
 .bss._ZZN7Serial_6acceptEvE5guard
                0x20070670        0x4 Builds/embeddedcomputing.a(CDC.o)
 .bss.SerialUSB
                0x20070674       0x14 Builds/embeddedcomputing.a(CDC.o)
                0x20070674                SerialUSB
 .bss.Mouse     0x20070688        0x4 Builds/embeddedcomputing.a(HID.o)
                0x20070688                Mouse
 .bss.Keyboard  0x2007068c       0x10 Builds/embeddedcomputing.a(HID.o)
                0x2007068c                Keyboard
 .bss._dwTickCount
                0x2007069c        0x4 /Applications/Arduino.app/Contents/Resources/Java/hardware/arduino/sam/variants/arduino_due_x/libsam_sam3x8e_gcc_rel.a(timetick.o)
 .bss.ul_recv_fifo_ptr
                0x200706a0       0x28 /Applications/Arduino.app/Contents/Resources/Java/hardware/arduino/sam/variants/arduino_due_x/libsam_sam3x8e_gcc_rel.a(uotghs_device.o)
 .bss.ul_send_fifo_ptr
                0x200706c8       0x28 /Applications/Arduino.app/Contents/Resources/Java/hardware/arduino/sam/variants/arduino_due_x/libsam_sam3x8e_gcc_rel.a(uotghs_device.o)
 *(COMMON)
                0x200706f0                . = ALIGN (0x4)
                0x200706f0                _ebss = .
                0x200706f0                _ezero = .
                0x200706f0                . = ALIGN (0x4)
                0x200706f0                _end = .

.stack_dummy    0x200706f0        0x0
 *(.stack*)
                0x20088000                __StackTop = 0x20088000
                0x20088000                __StackLimit = (__StackTop - SIZEOF (.stack_dummy))
                0x20088000                PROVIDE (_sstack, __StackLimit)
                0x20088000                PROVIDE (_estack, __StackTop)
OUTPUT(Builds/embeddedcomputing.elf elf32-littlearm)

.ARM.attributes
                0x00000000       0x25
 .ARM.attributes
                0x00000000       0x19 /Applications/Arduino.app/Contents/Resources/Java/hardware/tools/g++_arm_none_eabi/bin/../lib/gcc/arm-none-eabi/4.4.1/thumb2/crti.o
 .ARM.attributes
                0x00000019       0x29 /Applications/Arduino.app/Contents/Resources/Java/hardware/tools/g++_arm_none_eabi/bin/../lib/gcc/arm-none-eabi/4.4.1/thumb2/crtbegin.o
 .ARM.attributes
                0x00000042       0x31 Builds/variant.o
 .ARM.attributes
                0x00000073       0x31 Builds/syscalls_sam3.o
 .ARM.attributes
                0x000000a4       0x31 /Applications/Arduino.app/Contents/Resources/Java/hardware/arduino/sam/variants/arduino_due_x/libsam_sam3x8e_gcc_rel.a(pio.o)
 .ARM.attributes
                0x000000d5       0x31 /Applications/Arduino.app/Contents/Resources/Java/hardware/arduino/sam/variants/arduino_due_x/libsam_sam3x8e_gcc_rel.a(pmc.o)
 .ARM.attributes
                0x00000106       0x31 /Applications/Arduino.app/Contents/Resources/Java/hardware/arduino/sam/variants/arduino_due_x/libsam_sam3x8e_gcc_rel.a(wdt.o)
 .ARM.attributes
                0x00000137       0x31 /Applications/Arduino.app/Contents/Resources/Java/hardware/arduino/sam/variants/arduino_due_x/libsam_sam3x8e_gcc_rel.a(system_sam3xa.o)
 .ARM.attributes
                0x00000168       0x31 /Applications/Arduino.app/Contents/Resources/Java/hardware/arduino/sam/variants/arduino_due_x/libsam_sam3x8e_gcc_rel.a(startup_sam3xa.o)
 .ARM.attributes
                0x00000199       0x31 /Applications/Arduino.app/Contents/Resources/Java/hardware/arduino/sam/variants/arduino_due_x/libsam_sam3x8e_gcc_rel.a(adc.o)
 .ARM.attributes
                0x000001ca       0x31 /Applications/Arduino.app/Contents/Resources/Java/hardware/arduino/sam/variants/arduino_due_x/libsam_sam3x8e_gcc_rel.a(uotghs.o)
 .ARM.attributes
                0x000001fb       0x31 Builds/LocalLibrary.o
 .ARM.attributes
                0x0000022c       0x31 Builds/main.o
 .ARM.attributes
                0x0000025d       0x31 Builds/embeddedcomputing.a(WInterrupts.o)
 .ARM.attributes
                0x0000028e       0x31 Builds/embeddedcomputing.a(cortex_handlers.o)
 .ARM.attributes
                0x000002bf       0x31 Builds/embeddedcomputing.a(hooks.o)
 .ARM.attributes
                0x000002f0       0x31 Builds/embeddedcomputing.a(wiring.o)
 .ARM.attributes
                0x00000321       0x31 Builds/embeddedcomputing.a(wiring_analog.o)
 .ARM.attributes
                0x00000352       0x31 Builds/embeddedcomputing.a(wiring_digital.o)
 .ARM.attributes
                0x00000383       0x31 Builds/embeddedcomputing.a(Reset.o)
 .ARM.attributes
                0x000003b4       0x31 Builds/embeddedcomputing.a(RingBuffer.o)
 .ARM.attributes
                0x000003e5       0x31 Builds/embeddedcomputing.a(UARTClass.o)
 .ARM.attributes
                0x00000416       0x31 Builds/embeddedcomputing.a(USARTClass.o)
 .ARM.attributes
                0x00000447       0x31 Builds/embeddedcomputing.a(cxxabi-compat.o)
 .ARM.attributes
                0x00000478       0x31 Builds/embeddedcomputing.a(USBCore.o)
 .ARM.attributes
                0x000004a9       0x31 Builds/embeddedcomputing.a(Print.o)
 .ARM.attributes
                0x000004da       0x31 Builds/embeddedcomputing.a(CDC.o)
 .ARM.attributes
                0x0000050b       0x31 Builds/embeddedcomputing.a(HID.o)
 .ARM.attributes
                0x0000053c       0x31 /Applications/Arduino.app/Contents/Resources/Java/hardware/arduino/sam/variants/arduino_due_x/libsam_sam3x8e_gcc_rel.a(pwmc.o)
 .ARM.attributes
                0x0000056d       0x31 /Applications/Arduino.app/Contents/Resources/Java/hardware/arduino/sam/variants/arduino_due_x/libsam_sam3x8e_gcc_rel.a(tc.o)
 .ARM.attributes
                0x0000059e       0x31 /Applications/Arduino.app/Contents/Resources/Java/hardware/arduino/sam/variants/arduino_due_x/libsam_sam3x8e_gcc_rel.a(timetick.o)
 .ARM.attributes
                0x000005cf       0x31 /Applications/Arduino.app/Contents/Resources/Java/hardware/arduino/sam/variants/arduino_due_x/libsam_sam3x8e_gcc_rel.a(interrupt_sam_nvic.o)
 .ARM.attributes
                0x00000600       0x31 /Applications/Arduino.app/Contents/Resources/Java/hardware/arduino/sam/variants/arduino_due_x/libsam_sam3x8e_gcc_rel.a(uotghs_device.o)
 .ARM.attributes
                0x00000631       0x31 /Applications/Arduino.app/Contents/Resources/Java/hardware/arduino/sam/variants/arduino_due_x/libsam_sam3x8e_gcc_rel.a(dacc.o)
 .ARM.attributes
                0x00000662       0x29 /Applications/Arduino.app/Contents/Resources/Java/hardware/tools/g++_arm_none_eabi/bin/../lib/gcc/arm-none-eabi/4.4.1/../../../../arm-none-eabi/lib/thumb2/libm.a(lib_a-s_isinfd.o)
 .ARM.attributes
                0x0000068b       0x29 /Applications/Arduino.app/Contents/Resources/Java/hardware/tools/g++_arm_none_eabi/bin/../lib/gcc/arm-none-eabi/4.4.1/../../../../arm-none-eabi/lib/thumb2/libm.a(lib_a-s_isnand.o)
 .ARM.attributes
                0x000006b4       0x1b /Applications/Arduino.app/Contents/Resources/Java/hardware/tools/g++_arm_none_eabi/bin/../lib/gcc/arm-none-eabi/4.4.1/thumb2/libgcc.a(_arm_addsubdf3.o)
 .ARM.attributes
                0x000006cf       0x1b /Applications/Arduino.app/Contents/Resources/Java/hardware/tools/g++_arm_none_eabi/bin/../lib/gcc/arm-none-eabi/4.4.1/thumb2/libgcc.a(_arm_muldivdf3.o)
 .ARM.attributes
                0x000006ea       0x1b /Applications/Arduino.app/Contents/Resources/Java/hardware/tools/g++_arm_none_eabi/bin/../lib/gcc/arm-none-eabi/4.4.1/thumb2/libgcc.a(_arm_cmpdf2.o)
 .ARM.attributes
                0x00000705       0x1b /Applications/Arduino.app/Contents/Resources/Java/hardware/tools/g++_arm_none_eabi/bin/../lib/gcc/arm-none-eabi/4.4.1/thumb2/libgcc.a(_arm_fixdfsi.o)
 .ARM.attributes
                0x00000720       0x1b /Applications/Arduino.app/Contents/Resources/Java/hardware/tools/g++_arm_none_eabi/bin/../lib/gcc/arm-none-eabi/4.4.1/thumb2/libgcc.a(_arm_fixunsdfsi.o)
 .ARM.attributes
                0x0000073b       0x29 /Applications/Arduino.app/Contents/Resources/Java/hardware/tools/g++_arm_none_eabi/bin/../lib/gcc/arm-none-eabi/4.4.1/../../../../arm-none-eabi/lib/thumb2/libc.a(lib_a-assert.o)
 .ARM.attributes
                0x00000764       0x29 /Applications/Arduino.app/Contents/Resources/Java/hardware/tools/g++_arm_none_eabi/bin/../lib/gcc/arm-none-eabi/4.4.1/../../../../arm-none-eabi/lib/thumb2/libc.a(lib_a-fiprintf.o)
 .ARM.attributes
                0x0000078d       0x29 /Applications/Arduino.app/Contents/Resources/Java/hardware/tools/g++_arm_none_eabi/bin/../lib/gcc/arm-none-eabi/4.4.1/../../../../arm-none-eabi/lib/thumb2/libc.a(lib_a-impure.o)
 .ARM.attributes
                0x000007b6       0x29 /Applications/Arduino.app/Contents/Resources/Java/hardware/tools/g++_arm_none_eabi/bin/../lib/gcc/arm-none-eabi/4.4.1/../../../../arm-none-eabi/lib/thumb2/libc.a(lib_a-init.o)
 .ARM.attributes
                0x000007df       0x29 /Applications/Arduino.app/Contents/Resources/Java/hardware/tools/g++_arm_none_eabi/bin/../lib/gcc/arm-none-eabi/4.4.1/../../../../arm-none-eabi/lib/thumb2/libc.a(lib_a-iprintf.o)
 .ARM.attributes
                0x00000808       0x29 /Applications/Arduino.app/Contents/Resources/Java/hardware/tools/g++_arm_none_eabi/bin/../lib/gcc/arm-none-eabi/4.4.1/../../../../arm-none-eabi/lib/thumb2/libc.a(lib_a-memset.o)
 .ARM.attributes
                0x00000831       0x29 /Applications/Arduino.app/Contents/Resources/Java/hardware/tools/g++_arm_none_eabi/bin/../lib/gcc/arm-none-eabi/4.4.1/../../../../arm-none-eabi/lib/thumb2/libc.a(lib_a-strlen.o)
 .ARM.attributes
                0x0000085a       0x29 /Applications/Arduino.app/Contents/Resources/Java/hardware/tools/g++_arm_none_eabi/bin/../lib/gcc/arm-none-eabi/4.4.1/../../../../arm-none-eabi/lib/thumb2/libc.a(lib_a-vfiprintf.o)
 .ARM.attributes
                0x00000883       0x29 /Applications/Arduino.app/Contents/Resources/Java/hardware/tools/g++_arm_none_eabi/bin/../lib/gcc/arm-none-eabi/4.4.1/../../../../arm-none-eabi/lib/thumb2/libc.a(lib_a-wsetup.o)
 .ARM.attributes
                0x000008ac       0x29 /Applications/Arduino.app/Contents/Resources/Java/hardware/tools/g++_arm_none_eabi/bin/../lib/gcc/arm-none-eabi/4.4.1/../../../../arm-none-eabi/lib/thumb2/libc.a(lib_a-abort.o)
 .ARM.attributes
                0x000008d5       0x29 /Applications/Arduino.app/Contents/Resources/Java/hardware/tools/g++_arm_none_eabi/bin/../lib/gcc/arm-none-eabi/4.4.1/../../../../arm-none-eabi/lib/thumb2/libc.a(lib_a-fflush.o)
 .ARM.attributes
                0x000008fe       0x29 /Applications/Arduino.app/Contents/Resources/Java/hardware/tools/g++_arm_none_eabi/bin/../lib/gcc/arm-none-eabi/4.4.1/../../../../arm-none-eabi/lib/thumb2/libc.a(lib_a-findfp.o)
 .ARM.attributes
                0x00000927       0x29 /Applications/Arduino.app/Contents/Resources/Java/hardware/tools/g++_arm_none_eabi/bin/../lib/gcc/arm-none-eabi/4.4.1/../../../../arm-none-eabi/lib/thumb2/libc.a(lib_a-freer.o)
 .ARM.attributes
                0x00000950       0x29 /Applications/Arduino.app/Contents/Resources/Java/hardware/tools/g++_arm_none_eabi/bin/../lib/gcc/arm-none-eabi/4.4.1/../../../../arm-none-eabi/lib/thumb2/libc.a(lib_a-fvwrite.o)
 .ARM.attributes
                0x00000979       0x29 /Applications/Arduino.app/Contents/Resources/Java/hardware/tools/g++_arm_none_eabi/bin/../lib/gcc/arm-none-eabi/4.4.1/../../../../arm-none-eabi/lib/thumb2/libc.a(lib_a-fwalk.o)
 .ARM.attributes
                0x000009a2       0x29 /Applications/Arduino.app/Contents/Resources/Java/hardware/tools/g++_arm_none_eabi/bin/../lib/gcc/arm-none-eabi/4.4.1/../../../../arm-none-eabi/lib/thumb2/libc.a(lib_a-makebuf.o)
 .ARM.attributes
                0x000009cb       0x29 /Applications/Arduino.app/Contents/Resources/Java/hardware/tools/g++_arm_none_eabi/bin/../lib/gcc/arm-none-eabi/4.4.1/../../../../arm-none-eabi/lib/thumb2/libc.a(lib_a-mallocr.o)
 .ARM.attributes
                0x000009f4       0x29 /Applications/Arduino.app/Contents/Resources/Java/hardware/tools/g++_arm_none_eabi/bin/../lib/gcc/arm-none-eabi/4.4.1/../../../../arm-none-eabi/lib/thumb2/libc.a(lib_a-memchr.o)
 .ARM.attributes
                0x00000a1d       0x29 /Applications/Arduino.app/Contents/Resources/Java/hardware/tools/g++_arm_none_eabi/bin/../lib/gcc/arm-none-eabi/4.4.1/../../../../arm-none-eabi/lib/thumb2/libc.a(lib_a-memcpy.o)
 .ARM.attributes
                0x00000a46       0x29 /Applications/Arduino.app/Contents/Resources/Java/hardware/tools/g++_arm_none_eabi/bin/../lib/gcc/arm-none-eabi/4.4.1/../../../../arm-none-eabi/lib/thumb2/libc.a(lib_a-memmove.o)
 .ARM.attributes
                0x00000a6f       0x29 /Applications/Arduino.app/Contents/Resources/Java/hardware/tools/g++_arm_none_eabi/bin/../lib/gcc/arm-none-eabi/4.4.1/../../../../arm-none-eabi/lib/thumb2/libc.a(lib_a-mlock.o)
 .ARM.attributes
                0x00000a98       0x29 /Applications/Arduino.app/Contents/Resources/Java/hardware/tools/g++_arm_none_eabi/bin/../lib/gcc/arm-none-eabi/4.4.1/../../../../arm-none-eabi/lib/thumb2/libc.a(lib_a-reallocr.o)
 .ARM.attributes
                0x00000ac1       0x29 /Applications/Arduino.app/Contents/Resources/Java/hardware/tools/g++_arm_none_eabi/bin/../lib/gcc/arm-none-eabi/4.4.1/../../../../arm-none-eabi/lib/thumb2/libc.a(lib_a-sbrkr.o)
 .ARM.attributes
                0x00000aea       0x29 /Applications/Arduino.app/Contents/Resources/Java/hardware/tools/g++_arm_none_eabi/bin/../lib/gcc/arm-none-eabi/4.4.1/../../../../arm-none-eabi/lib/thumb2/libc.a(lib_a-signal.o)
 .ARM.attributes
                0x00000b13       0x29 /Applications/Arduino.app/Contents/Resources/Java/hardware/tools/g++_arm_none_eabi/bin/../lib/gcc/arm-none-eabi/4.4.1/../../../../arm-none-eabi/lib/thumb2/libc.a(lib_a-signalr.o)
 .ARM.attributes
                0x00000b3c       0x29 /Applications/Arduino.app/Contents/Resources/Java/hardware/tools/g++_arm_none_eabi/bin/../lib/gcc/arm-none-eabi/4.4.1/../../../../arm-none-eabi/lib/thumb2/libc.a(lib_a-stdio.o)
 .ARM.attributes
                0x00000b65       0x29 /Applications/Arduino.app/Contents/Resources/Java/hardware/tools/g++_arm_none_eabi/bin/../lib/gcc/arm-none-eabi/4.4.1/../../../../arm-none-eabi/lib/thumb2/libc.a(lib_a-writer.o)
 .ARM.attributes
                0x00000b8e       0x29 /Applications/Arduino.app/Contents/Resources/Java/hardware/tools/g++_arm_none_eabi/bin/../lib/gcc/arm-none-eabi/4.4.1/../../../../arm-none-eabi/lib/thumb2/libc.a(lib_a-closer.o)
 .ARM.attributes
                0x00000bb7       0x29 /Applications/Arduino.app/Contents/Resources/Java/hardware/tools/g++_arm_none_eabi/bin/../lib/gcc/arm-none-eabi/4.4.1/../../../../arm-none-eabi/lib/thumb2/libc.a(lib_a-fclose.o)
 .ARM.attributes
                0x00000be0       0x29 /Applications/Arduino.app/Contents/Resources/Java/hardware/tools/g++_arm_none_eabi/bin/../lib/gcc/arm-none-eabi/4.4.1/../../../../arm-none-eabi/lib/thumb2/libc.a(lib_a-fstatr.o)
 .ARM.attributes
                0x00000c09       0x29 /Applications/Arduino.app/Contents/Resources/Java/hardware/tools/g++_arm_none_eabi/bin/../lib/gcc/arm-none-eabi/4.4.1/../../../../arm-none-eabi/lib/thumb2/libc.a(lib_a-isattyr.o)
 .ARM.attributes
                0x00000c32       0x29 /Applications/Arduino.app/Contents/Resources/Java/hardware/tools/g++_arm_none_eabi/bin/../lib/gcc/arm-none-eabi/4.4.1/../../../../arm-none-eabi/lib/thumb2/libc.a(lib_a-lseekr.o)
 .ARM.attributes
                0x00000c5b       0x29 /Applications/Arduino.app/Contents/Resources/Java/hardware/tools/g++_arm_none_eabi/bin/../lib/gcc/arm-none-eabi/4.4.1/../../../../arm-none-eabi/lib/thumb2/libc.a(lib_a-readr.o)
 .ARM.attributes
                0x00000c84       0x29 /Applications/Arduino.app/Contents/Resources/Java/hardware/tools/g++_arm_none_eabi/bin/../lib/gcc/arm-none-eabi/4.4.1/../../../../arm-none-eabi/lib/thumb2/libc.a(lib_a-reent.o)
 .ARM.attributes
                0x00000cad       0x1b /Applications/Arduino.app/Contents/Resources/Java/hardware/tools/g++_arm_none_eabi/bin/../lib/gcc/arm-none-eabi/4.4.1/thumb2/libgcc.a(_udivsi3.o)
 .ARM.attributes
                0x00000cc8       0x1b /Applications/Arduino.app/Contents/Resources/Java/hardware/tools/g++_arm_none_eabi/bin/../lib/gcc/arm-none-eabi/4.4.1/thumb2/libgcc.a(_dvmd_tls.o)
 .ARM.attributes
                0x00000ce3       0x29 /Applications/Arduino.app/Contents/Resources/Java/hardware/tools/g++_arm_none_eabi/bin/../lib/gcc/arm-none-eabi/4.4.1/thumb2/crtend.o
 .ARM.attributes
                0x00000d0c       0x19 /Applications/Arduino.app/Contents/Resources/Java/hardware/tools/g++_arm_none_eabi/bin/../lib/gcc/arm-none-eabi/4.4.1/thumb2/crtn.o

.comment        0x00000000      0x42c
 .comment       0x00000000       0x12 /Applications/Arduino.app/Contents/Resources/Java/hardware/tools/g++_arm_none_eabi/bin/../lib/gcc/arm-none-eabi/4.4.1/thumb2/crtbegin.o
 .comment       0x00000012       0x12 Builds/variant.o
 .comment       0x00000024       0x12 Builds/syscalls_sam3.o
 .comment       0x00000036       0x2a /Applications/Arduino.app/Contents/Resources/Java/hardware/arduino/sam/variants/arduino_due_x/libsam_sam3x8e_gcc_rel.a(pio.o)
                                 0x2b (size before relaxing)
 .comment       0x00000000       0x2b /Applications/Arduino.app/Contents/Resources/Java/hardware/arduino/sam/variants/arduino_due_x/libsam_sam3x8e_gcc_rel.a(pmc.o)
 .comment       0x00000000       0x2b /Applications/Arduino.app/Contents/Resources/Java/hardware/arduino/sam/variants/arduino_due_x/libsam_sam3x8e_gcc_rel.a(wdt.o)
 .comment       0x00000000       0x2b /Applications/Arduino.app/Contents/Resources/Java/hardware/arduino/sam/variants/arduino_due_x/libsam_sam3x8e_gcc_rel.a(system_sam3xa.o)
 .comment       0x00000000       0x2b /Applications/Arduino.app/Contents/Resources/Java/hardware/arduino/sam/variants/arduino_due_x/libsam_sam3x8e_gcc_rel.a(startup_sam3xa.o)
 .comment       0x00000000       0x2b /Applications/Arduino.app/Contents/Resources/Java/hardware/arduino/sam/variants/arduino_due_x/libsam_sam3x8e_gcc_rel.a(adc.o)
 .comment       0x00000000       0x2b /Applications/Arduino.app/Contents/Resources/Java/hardware/arduino/sam/variants/arduino_due_x/libsam_sam3x8e_gcc_rel.a(uotghs.o)
 .comment       0x00000060       0x12 Builds/LocalLibrary.o
 .comment       0x00000072       0x12 Builds/main.o
 .comment       0x00000084       0x12 Builds/embeddedcomputing.a(WInterrupts.o)
 .comment       0x00000096       0x12 Builds/embeddedcomputing.a(cortex_handlers.o)
 .comment       0x000000a8       0x12 Builds/embeddedcomputing.a(hooks.o)
 .comment       0x000000ba       0x12 Builds/embeddedcomputing.a(wiring.o)
 .comment       0x000000cc       0x12 Builds/embeddedcomputing.a(wiring_analog.o)
 .comment       0x000000de       0x12 Builds/embeddedcomputing.a(wiring_digital.o)
 .comment       0x000000f0       0x12 Builds/embeddedcomputing.a(Reset.o)
 .comment       0x00000102       0x12 Builds/embeddedcomputing.a(RingBuffer.o)
 .comment       0x00000114       0x12 Builds/embeddedcomputing.a(UARTClass.o)
 .comment       0x00000126       0x12 Builds/embeddedcomputing.a(USARTClass.o)
 .comment       0x00000138       0x12 Builds/embeddedcomputing.a(cxxabi-compat.o)
 .comment       0x0000014a       0x12 Builds/embeddedcomputing.a(USBCore.o)
 .comment       0x0000015c       0x12 Builds/embeddedcomputing.a(Print.o)
 .comment       0x0000016e       0x12 Builds/embeddedcomputing.a(CDC.o)
 .comment       0x00000180       0x12 Builds/embeddedcomputing.a(HID.o)
 .comment       0x00000000       0x2b /Applications/Arduino.app/Contents/Resources/Java/hardware/arduino/sam/variants/arduino_due_x/libsam_sam3x8e_gcc_rel.a(pwmc.o)
 .comment       0x00000000       0x2b /Applications/Arduino.app/Contents/Resources/Java/hardware/arduino/sam/variants/arduino_due_x/libsam_sam3x8e_gcc_rel.a(tc.o)
 .comment       0x00000000       0x2b /Applications/Arduino.app/Contents/Resources/Java/hardware/arduino/sam/variants/arduino_due_x/libsam_sam3x8e_gcc_rel.a(timetick.o)
 .comment       0x00000000       0x2b /Applications/Arduino.app/Contents/Resources/Java/hardware/arduino/sam/variants/arduino_due_x/libsam_sam3x8e_gcc_rel.a(interrupt_sam_nvic.o)
 .comment       0x00000000       0x2b /Applications/Arduino.app/Contents/Resources/Java/hardware/arduino/sam/variants/arduino_due_x/libsam_sam3x8e_gcc_rel.a(uotghs_device.o)
 .comment       0x00000000       0x2b /Applications/Arduino.app/Contents/Resources/Java/hardware/arduino/sam/variants/arduino_due_x/libsam_sam3x8e_gcc_rel.a(dacc.o)
 .comment       0x00000192       0x12 /Applications/Arduino.app/Contents/Resources/Java/hardware/tools/g++_arm_none_eabi/bin/../lib/gcc/arm-none-eabi/4.4.1/../../../../arm-none-eabi/lib/thumb2/libm.a(lib_a-s_isinfd.o)
 .comment       0x000001a4       0x12 /Applications/Arduino.app/Contents/Resources/Java/hardware/tools/g++_arm_none_eabi/bin/../lib/gcc/arm-none-eabi/4.4.1/../../../../arm-none-eabi/lib/thumb2/libm.a(lib_a-s_isnand.o)
 .comment       0x000001b6       0x12 /Applications/Arduino.app/Contents/Resources/Java/hardware/tools/g++_arm_none_eabi/bin/../lib/gcc/arm-none-eabi/4.4.1/../../../../arm-none-eabi/lib/thumb2/libc.a(lib_a-assert.o)
 .comment       0x000001c8       0x12 /Applications/Arduino.app/Contents/Resources/Java/hardware/tools/g++_arm_none_eabi/bin/../lib/gcc/arm-none-eabi/4.4.1/../../../../arm-none-eabi/lib/thumb2/libc.a(lib_a-fiprintf.o)
 .comment       0x000001da       0x12 /Applications/Arduino.app/Contents/Resources/Java/hardware/tools/g++_arm_none_eabi/bin/../lib/gcc/arm-none-eabi/4.4.1/../../../../arm-none-eabi/lib/thumb2/libc.a(lib_a-impure.o)
 .comment       0x000001ec       0x12 /Applications/Arduino.app/Contents/Resources/Java/hardware/tools/g++_arm_none_eabi/bin/../lib/gcc/arm-none-eabi/4.4.1/../../../../arm-none-eabi/lib/thumb2/libc.a(lib_a-init.o)
 .comment       0x000001fe       0x12 /Applications/Arduino.app/Contents/Resources/Java/hardware/tools/g++_arm_none_eabi/bin/../lib/gcc/arm-none-eabi/4.4.1/../../../../arm-none-eabi/lib/thumb2/libc.a(lib_a-iprintf.o)
 .comment       0x00000210       0x12 /Applications/Arduino.app/Contents/Resources/Java/hardware/tools/g++_arm_none_eabi/bin/../lib/gcc/arm-none-eabi/4.4.1/../../../../arm-none-eabi/lib/thumb2/libc.a(lib_a-memset.o)
 .comment       0x00000222       0x12 /Applications/Arduino.app/Contents/Resources/Java/hardware/tools/g++_arm_none_eabi/bin/../lib/gcc/arm-none-eabi/4.4.1/../../../../arm-none-eabi/lib/thumb2/libc.a(lib_a-strlen.o)
 .comment       0x00000234       0x12 /Applications/Arduino.app/Contents/Resources/Java/hardware/tools/g++_arm_none_eabi/bin/../lib/gcc/arm-none-eabi/4.4.1/../../../../arm-none-eabi/lib/thumb2/libc.a(lib_a-vfiprintf.o)
 .comment       0x00000246       0x12 /Applications/Arduino.app/Contents/Resources/Java/hardware/tools/g++_arm_none_eabi/bin/../lib/gcc/arm-none-eabi/4.4.1/../../../../arm-none-eabi/lib/thumb2/libc.a(lib_a-wsetup.o)
 .comment       0x00000258       0x12 /Applications/Arduino.app/Contents/Resources/Java/hardware/tools/g++_arm_none_eabi/bin/../lib/gcc/arm-none-eabi/4.4.1/../../../../arm-none-eabi/lib/thumb2/libc.a(lib_a-abort.o)
 .comment       0x0000026a       0x12 /Applications/Arduino.app/Contents/Resources/Java/hardware/tools/g++_arm_none_eabi/bin/../lib/gcc/arm-none-eabi/4.4.1/../../../../arm-none-eabi/lib/thumb2/libc.a(lib_a-fflush.o)
 .comment       0x0000027c       0x12 /Applications/Arduino.app/Contents/Resources/Java/hardware/tools/g++_arm_none_eabi/bin/../lib/gcc/arm-none-eabi/4.4.1/../../../../arm-none-eabi/lib/thumb2/libc.a(lib_a-findfp.o)
 .comment       0x0000028e       0x12 /Applications/Arduino.app/Contents/Resources/Java/hardware/tools/g++_arm_none_eabi/bin/../lib/gcc/arm-none-eabi/4.4.1/../../../../arm-none-eabi/lib/thumb2/libc.a(lib_a-freer.o)
 .comment       0x000002a0       0x12 /Applications/Arduino.app/Contents/Resources/Java/hardware/tools/g++_arm_none_eabi/bin/../lib/gcc/arm-none-eabi/4.4.1/../../../../arm-none-eabi/lib/thumb2/libc.a(lib_a-fvwrite.o)
 .comment       0x000002b2       0x12 /Applications/Arduino.app/Contents/Resources/Java/hardware/tools/g++_arm_none_eabi/bin/../lib/gcc/arm-none-eabi/4.4.1/../../../../arm-none-eabi/lib/thumb2/libc.a(lib_a-fwalk.o)
 .comment       0x000002c4       0x12 /Applications/Arduino.app/Contents/Resources/Java/hardware/tools/g++_arm_none_eabi/bin/../lib/gcc/arm-none-eabi/4.4.1/../../../../arm-none-eabi/lib/thumb2/libc.a(lib_a-makebuf.o)
 .comment       0x000002d6       0x12 /Applications/Arduino.app/Contents/Resources/Java/hardware/tools/g++_arm_none_eabi/bin/../lib/gcc/arm-none-eabi/4.4.1/../../../../arm-none-eabi/lib/thumb2/libc.a(lib_a-mallocr.o)
 .comment       0x000002e8       0x12 /Applications/Arduino.app/Contents/Resources/Java/hardware/tools/g++_arm_none_eabi/bin/../lib/gcc/arm-none-eabi/4.4.1/../../../../arm-none-eabi/lib/thumb2/libc.a(lib_a-memchr.o)
 .comment       0x000002fa       0x12 /Applications/Arduino.app/Contents/Resources/Java/hardware/tools/g++_arm_none_eabi/bin/../lib/gcc/arm-none-eabi/4.4.1/../../../../arm-none-eabi/lib/thumb2/libc.a(lib_a-memcpy.o)
 .comment       0x0000030c       0x12 /Applications/Arduino.app/Contents/Resources/Java/hardware/tools/g++_arm_none_eabi/bin/../lib/gcc/arm-none-eabi/4.4.1/../../../../arm-none-eabi/lib/thumb2/libc.a(lib_a-memmove.o)
 .comment       0x0000031e       0x12 /Applications/Arduino.app/Contents/Resources/Java/hardware/tools/g++_arm_none_eabi/bin/../lib/gcc/arm-none-eabi/4.4.1/../../../../arm-none-eabi/lib/thumb2/libc.a(lib_a-mlock.o)
 .comment       0x00000330       0x12 /Applications/Arduino.app/Contents/Resources/Java/hardware/tools/g++_arm_none_eabi/bin/../lib/gcc/arm-none-eabi/4.4.1/../../../../arm-none-eabi/lib/thumb2/libc.a(lib_a-reallocr.o)
 .comment       0x00000342       0x12 /Applications/Arduino.app/Contents/Resources/Java/hardware/tools/g++_arm_none_eabi/bin/../lib/gcc/arm-none-eabi/4.4.1/../../../../arm-none-eabi/lib/thumb2/libc.a(lib_a-sbrkr.o)
 .comment       0x00000354       0x12 /Applications/Arduino.app/Contents/Resources/Java/hardware/tools/g++_arm_none_eabi/bin/../lib/gcc/arm-none-eabi/4.4.1/../../../../arm-none-eabi/lib/thumb2/libc.a(lib_a-signal.o)
 .comment       0x00000366       0x12 /Applications/Arduino.app/Contents/Resources/Java/hardware/tools/g++_arm_none_eabi/bin/../lib/gcc/arm-none-eabi/4.4.1/../../../../arm-none-eabi/lib/thumb2/libc.a(lib_a-signalr.o)
 .comment       0x00000378       0x12 /Applications/Arduino.app/Contents/Resources/Java/hardware/tools/g++_arm_none_eabi/bin/../lib/gcc/arm-none-eabi/4.4.1/../../../../arm-none-eabi/lib/thumb2/libc.a(lib_a-stdio.o)
 .comment       0x0000038a       0x12 /Applications/Arduino.app/Contents/Resources/Java/hardware/tools/g++_arm_none_eabi/bin/../lib/gcc/arm-none-eabi/4.4.1/../../../../arm-none-eabi/lib/thumb2/libc.a(lib_a-writer.o)
 .comment       0x0000039c       0x12 /Applications/Arduino.app/Contents/Resources/Java/hardware/tools/g++_arm_none_eabi/bin/../lib/gcc/arm-none-eabi/4.4.1/../../../../arm-none-eabi/lib/thumb2/libc.a(lib_a-closer.o)
 .comment       0x000003ae       0x12 /Applications/Arduino.app/Contents/Resources/Java/hardware/tools/g++_arm_none_eabi/bin/../lib/gcc/arm-none-eabi/4.4.1/../../../../arm-none-eabi/lib/thumb2/libc.a(lib_a-fclose.o)
 .comment       0x000003c0       0x12 /Applications/Arduino.app/Contents/Resources/Java/hardware/tools/g++_arm_none_eabi/bin/../lib/gcc/arm-none-eabi/4.4.1/../../../../arm-none-eabi/lib/thumb2/libc.a(lib_a-fstatr.o)
 .comment       0x000003d2       0x12 /Applications/Arduino.app/Contents/Resources/Java/hardware/tools/g++_arm_none_eabi/bin/../lib/gcc/arm-none-eabi/4.4.1/../../../../arm-none-eabi/lib/thumb2/libc.a(lib_a-isattyr.o)
 .comment       0x000003e4       0x12 /Applications/Arduino.app/Contents/Resources/Java/hardware/tools/g++_arm_none_eabi/bin/../lib/gcc/arm-none-eabi/4.4.1/../../../../arm-none-eabi/lib/thumb2/libc.a(lib_a-lseekr.o)
 .comment       0x000003f6       0x12 /Applications/Arduino.app/Contents/Resources/Java/hardware/tools/g++_arm_none_eabi/bin/../lib/gcc/arm-none-eabi/4.4.1/../../../../arm-none-eabi/lib/thumb2/libc.a(lib_a-readr.o)
 .comment       0x00000408       0x12 /Applications/Arduino.app/Contents/Resources/Java/hardware/tools/g++_arm_none_eabi/bin/../lib/gcc/arm-none-eabi/4.4.1/../../../../arm-none-eabi/lib/thumb2/libc.a(lib_a-reent.o)
 .comment       0x0000041a       0x12 /Applications/Arduino.app/Contents/Resources/Java/hardware/tools/g++_arm_none_eabi/bin/../lib/gcc/arm-none-eabi/4.4.1/thumb2/crtend.o

.debug_line     0x00000000     0x50ef
 .debug_line    0x00000000       0x6f /Applications/Arduino.app/Contents/Resources/Java/hardware/tools/g++_arm_none_eabi/bin/../lib/gcc/arm-none-eabi/4.4.1/thumb2/crti.o
 .debug_line    0x0000006f      0x526 Builds/variant.o
 .debug_line    0x00000595      0x3b2 Builds/syscalls_sam3.o
 .debug_line    0x00000947        0x0 Builds/LocalLibrary.o
 .debug_line    0x00000947      0x2cb Builds/main.o
 .debug_line    0x00000c12      0x4b8 Builds/embeddedcomputing.a(WInterrupts.o)
 .debug_line    0x000010ca      0x2be Builds/embeddedcomputing.a(cortex_handlers.o)
 .debug_line    0x00001388       0xac Builds/embeddedcomputing.a(hooks.o)
 .debug_line    0x00001434      0x2b1 Builds/embeddedcomputing.a(wiring.o)
 .debug_line    0x000016e5      0x4b5 Builds/embeddedcomputing.a(wiring_analog.o)
 .debug_line    0x00001b9a      0x370 Builds/embeddedcomputing.a(wiring_digital.o)
 .debug_line    0x00001f0a      0x3f9 Builds/embeddedcomputing.a(Reset.o)
 .debug_line    0x00002303      0x17b Builds/embeddedcomputing.a(RingBuffer.o)
 .debug_line    0x0000247e      0x546 Builds/embeddedcomputing.a(UARTClass.o)
 .debug_line    0x000029c4      0x549 Builds/embeddedcomputing.a(USARTClass.o)
 .debug_line    0x00002f0d       0x96 Builds/embeddedcomputing.a(cxxabi-compat.o)
 .debug_line    0x00002fa3      0x6df Builds/embeddedcomputing.a(USBCore.o)
 .debug_line    0x00003682      0x5f8 Builds/embeddedcomputing.a(Print.o)
 .debug_line    0x00003c7a      0x69f Builds/embeddedcomputing.a(CDC.o)
 .debug_line    0x00004319      0x5f3 Builds/embeddedcomputing.a(HID.o)
 .debug_line    0x0000490c      0x20e /Applications/Arduino.app/Contents/Resources/Java/hardware/tools/g++_arm_none_eabi/bin/../lib/gcc/arm-none-eabi/4.4.1/thumb2/libgcc.a(_arm_addsubdf3.o)
 .debug_line    0x00004b1a      0x22e /Applications/Arduino.app/Contents/Resources/Java/hardware/tools/g++_arm_none_eabi/bin/../lib/gcc/arm-none-eabi/4.4.1/thumb2/libgcc.a(_arm_muldivdf3.o)
 .debug_line    0x00004d48      0x114 /Applications/Arduino.app/Contents/Resources/Java/hardware/tools/g++_arm_none_eabi/bin/../lib/gcc/arm-none-eabi/4.4.1/thumb2/libgcc.a(_arm_cmpdf2.o)
 .debug_line    0x00004e5c       0x8c /Applications/Arduino.app/Contents/Resources/Java/hardware/tools/g++_arm_none_eabi/bin/../lib/gcc/arm-none-eabi/4.4.1/thumb2/libgcc.a(_arm_fixdfsi.o)
 .debug_line    0x00004ee8       0x88 /Applications/Arduino.app/Contents/Resources/Java/hardware/tools/g++_arm_none_eabi/bin/../lib/gcc/arm-none-eabi/4.4.1/thumb2/libgcc.a(_arm_fixunsdfsi.o)
 .debug_line    0x00004f70       0x98 /Applications/Arduino.app/Contents/Resources/Java/hardware/tools/g++_arm_none_eabi/bin/../lib/gcc/arm-none-eabi/4.4.1/thumb2/libgcc.a(_udivsi3.o)
 .debug_line    0x00005008       0x75 /Applications/Arduino.app/Contents/Resources/Java/hardware/tools/g++_arm_none_eabi/bin/../lib/gcc/arm-none-eabi/4.4.1/thumb2/libgcc.a(_dvmd_tls.o)
 .debug_line    0x0000507d       0x72 /Applications/Arduino.app/Contents/Resources/Java/hardware/tools/g++_arm_none_eabi/bin/../lib/gcc/arm-none-eabi/4.4.1/thumb2/crtn.o

.debug_info     0x00000000     0xfb33
 .debug_info    0x00000000       0x8f /Applications/Arduino.app/Contents/Resources/Java/hardware/tools/g++_arm_none_eabi/bin/../lib/gcc/arm-none-eabi/4.4.1/thumb2/crti.o
 .debug_info    0x0000008f     0x1288 Builds/variant.o
 .debug_info    0x00001317      0x5fb Builds/syscalls_sam3.o
 .debug_info    0x00001912        0x0 Builds/LocalLibrary.o
 .debug_info    0x00001912      0x2db Builds/main.o
 .debug_info    0x00001bed     0x1161 Builds/embeddedcomputing.a(WInterrupts.o)
 .debug_info    0x00002d4e      0x233 Builds/embeddedcomputing.a(cortex_handlers.o)
 .debug_info    0x00002f81       0x64 Builds/embeddedcomputing.a(hooks.o)
 .debug_info    0x00002fe5      0x4a8 Builds/embeddedcomputing.a(wiring.o)
 .debug_info    0x0000348d     0x16aa Builds/embeddedcomputing.a(wiring_analog.o)
 .debug_info    0x00004b37      0x8bc Builds/embeddedcomputing.a(wiring_digital.o)
 .debug_info    0x000053f3      0x355 Builds/embeddedcomputing.a(Reset.o)
 .debug_info    0x00005748      0x195 Builds/embeddedcomputing.a(RingBuffer.o)
 .debug_info    0x000058dd     0x1b3c Builds/embeddedcomputing.a(UARTClass.o)
 .debug_info    0x00007419     0x1c24 Builds/embeddedcomputing.a(USARTClass.o)
 .debug_info    0x0000903d       0x38 Builds/embeddedcomputing.a(cxxabi-compat.o)
 .debug_info    0x00009075     0x1602 Builds/embeddedcomputing.a(USBCore.o)
 .debug_info    0x0000a677     0x1bc4 Builds/embeddedcomputing.a(Print.o)
 .debug_info    0x0000c23b     0x24e8 Builds/embeddedcomputing.a(CDC.o)
 .debug_info    0x0000e723      0xe46 Builds/embeddedcomputing.a(HID.o)
 .debug_info    0x0000f569       0xbf /Applications/Arduino.app/Contents/Resources/Java/hardware/tools/g++_arm_none_eabi/bin/../lib/gcc/arm-none-eabi/4.4.1/thumb2/libgcc.a(_arm_addsubdf3.o)
 .debug_info    0x0000f628       0xbf /Applications/Arduino.app/Contents/Resources/Java/hardware/tools/g++_arm_none_eabi/bin/../lib/gcc/arm-none-eabi/4.4.1/thumb2/libgcc.a(_arm_muldivdf3.o)
 .debug_info    0x0000f6e7       0xbf /Applications/Arduino.app/Contents/Resources/Java/hardware/tools/g++_arm_none_eabi/bin/../lib/gcc/arm-none-eabi/4.4.1/thumb2/libgcc.a(_arm_cmpdf2.o)
 .debug_info    0x0000f7a6       0xbf /Applications/Arduino.app/Contents/Resources/Java/hardware/tools/g++_arm_none_eabi/bin/../lib/gcc/arm-none-eabi/4.4.1/thumb2/libgcc.a(_arm_fixdfsi.o)
 .debug_info    0x0000f865       0xbf /Applications/Arduino.app/Contents/Resources/Java/hardware/tools/g++_arm_none_eabi/bin/../lib/gcc/arm-none-eabi/4.4.1/thumb2/libgcc.a(_arm_fixunsdfsi.o)
 .debug_info    0x0000f924       0xc0 /Applications/Arduino.app/Contents/Resources/Java/hardware/tools/g++_arm_none_eabi/bin/../lib/gcc/arm-none-eabi/4.4.1/thumb2/libgcc.a(_udivsi3.o)
 .debug_info    0x0000f9e4       0xc0 /Applications/Arduino.app/Contents/Resources/Java/hardware/tools/g++_arm_none_eabi/bin/../lib/gcc/arm-none-eabi/4.4.1/thumb2/libgcc.a(_dvmd_tls.o)
 .debug_info    0x0000faa4       0x8f /Applications/Arduino.app/Contents/Resources/Java/hardware/tools/g++_arm_none_eabi/bin/../lib/gcc/arm-none-eabi/4.4.1/thumb2/crtn.o

.debug_abbrev   0x00000000     0x2a90
 .debug_abbrev  0x00000000       0x12 /Applications/Arduino.app/Contents/Resources/Java/hardware/tools/g++_arm_none_eabi/bin/../lib/gcc/arm-none-eabi/4.4.1/thumb2/crti.o
 .debug_abbrev  0x00000012      0x2a6 Builds/variant.o
 .debug_abbrev  0x000002b8      0x169 Builds/syscalls_sam3.o
 .debug_abbrev  0x00000421        0x1 Builds/LocalLibrary.o
 .debug_abbrev  0x00000422      0x11d Builds/main.o
 .debug_abbrev  0x0000053f      0x265 Builds/embeddedcomputing.a(WInterrupts.o)
 .debug_abbrev  0x000007a4       0xc9 Builds/embeddedcomputing.a(cortex_handlers.o)
 .debug_abbrev  0x0000086d       0x43 Builds/embeddedcomputing.a(hooks.o)
 .debug_abbrev  0x000008b0      0x14c Builds/embeddedcomputing.a(wiring.o)
 .debug_abbrev  0x000009fc      0x28f Builds/embeddedcomputing.a(wiring_analog.o)
 .debug_abbrev  0x00000c8b      0x146 Builds/embeddedcomputing.a(wiring_digital.o)
 .debug_abbrev  0x00000dd1      0x146 Builds/embeddedcomputing.a(Reset.o)
 .debug_abbrev  0x00000f17      0x139 Builds/embeddedcomputing.a(RingBuffer.o)
 .debug_abbrev  0x00001050      0x3dd Builds/embeddedcomputing.a(UARTClass.o)
 .debug_abbrev  0x0000142d      0x3dd Builds/embeddedcomputing.a(USARTClass.o)
 .debug_abbrev  0x0000180a       0x27 Builds/embeddedcomputing.a(cxxabi-compat.o)
 .debug_abbrev  0x00001831      0x507 Builds/embeddedcomputing.a(USBCore.o)
 .debug_abbrev  0x00001d38      0x33e Builds/embeddedcomputing.a(Print.o)
 .debug_abbrev  0x00002076      0x4d6 Builds/embeddedcomputing.a(CDC.o)
 .debug_abbrev  0x0000254c      0x4a6 Builds/embeddedcomputing.a(HID.o)
 .debug_abbrev  0x000029f2       0x14 /Applications/Arduino.app/Contents/Resources/Java/hardware/tools/g++_arm_none_eabi/bin/../lib/gcc/arm-none-eabi/4.4.1/thumb2/libgcc.a(_arm_addsubdf3.o)
 .debug_abbrev  0x00002a06       0x14 /Applications/Arduino.app/Contents/Resources/Java/hardware/tools/g++_arm_none_eabi/bin/../lib/gcc/arm-none-eabi/4.4.1/thumb2/libgcc.a(_arm_muldivdf3.o)
 .debug_abbrev  0x00002a1a       0x14 /Applications/Arduino.app/Contents/Resources/Java/hardware/tools/g++_arm_none_eabi/bin/../lib/gcc/arm-none-eabi/4.4.1/thumb2/libgcc.a(_arm_cmpdf2.o)
 .debug_abbrev  0x00002a2e       0x14 /Applications/Arduino.app/Contents/Resources/Java/hardware/tools/g++_arm_none_eabi/bin/../lib/gcc/arm-none-eabi/4.4.1/thumb2/libgcc.a(_arm_fixdfsi.o)
 .debug_abbrev  0x00002a42       0x14 /Applications/Arduino.app/Contents/Resources/Java/hardware/tools/g++_arm_none_eabi/bin/../lib/gcc/arm-none-eabi/4.4.1/thumb2/libgcc.a(_arm_fixunsdfsi.o)
 .debug_abbrev  0x00002a56       0x14 /Applications/Arduino.app/Contents/Resources/Java/hardware/tools/g++_arm_none_eabi/bin/../lib/gcc/arm-none-eabi/4.4.1/thumb2/libgcc.a(_udivsi3.o)
 .debug_abbrev  0x00002a6a       0x14 /Applications/Arduino.app/Contents/Resources/Java/hardware/tools/g++_arm_none_eabi/bin/../lib/gcc/arm-none-eabi/4.4.1/thumb2/libgcc.a(_dvmd_tls.o)
 .debug_abbrev  0x00002a7e       0x12 /Applications/Arduino.app/Contents/Resources/Java/hardware/tools/g++_arm_none_eabi/bin/../lib/gcc/arm-none-eabi/4.4.1/thumb2/crtn.o

.debug_aranges  0x00000000      0x830
 .debug_aranges
                0x00000000       0x28 /Applications/Arduino.app/Contents/Resources/Java/hardware/tools/g++_arm_none_eabi/bin/../lib/gcc/arm-none-eabi/4.4.1/thumb2/crti.o
 .debug_aranges
                0x00000028       0x70 Builds/variant.o
 .debug_aranges
                0x00000098       0x70 Builds/syscalls_sam3.o
 .debug_aranges
                0x00000108       0x30 Builds/main.o
 .debug_aranges
                0x00000138       0x48 Builds/embeddedcomputing.a(WInterrupts.o)
 .debug_aranges
                0x00000180       0x38 Builds/embeddedcomputing.a(cortex_handlers.o)
 .debug_aranges
                0x000001b8       0x30 Builds/embeddedcomputing.a(hooks.o)
 .debug_aranges
                0x000001e8       0x30 Builds/embeddedcomputing.a(wiring.o)
 .debug_aranges
                0x00000218       0x58 Builds/embeddedcomputing.a(wiring_analog.o)
 .debug_aranges
                0x00000270       0x30 Builds/embeddedcomputing.a(wiring_digital.o)
 .debug_aranges
                0x000002a0       0x38 Builds/embeddedcomputing.a(Reset.o)
 .debug_aranges
                0x000002d8       0x30 Builds/embeddedcomputing.a(RingBuffer.o)
 .debug_aranges
                0x00000308       0x70 Builds/embeddedcomputing.a(UARTClass.o)
 .debug_aranges
                0x00000378       0x70 Builds/embeddedcomputing.a(USARTClass.o)
 .debug_aranges
                0x000003e8       0x20 Builds/embeddedcomputing.a(cxxabi-compat.o)
 .debug_aranges
                0x00000408       0xc8 Builds/embeddedcomputing.a(USBCore.o)
 .debug_aranges
                0x000004d0       0xf0 Builds/embeddedcomputing.a(Print.o)
 .debug_aranges
                0x000005c0       0x90 Builds/embeddedcomputing.a(CDC.o)
 .debug_aranges
                0x00000650       0xd8 Builds/embeddedcomputing.a(HID.o)
 .debug_aranges
                0x00000728       0x20 /Applications/Arduino.app/Contents/Resources/Java/hardware/tools/g++_arm_none_eabi/bin/../lib/gcc/arm-none-eabi/4.4.1/thumb2/libgcc.a(_arm_addsubdf3.o)
 .debug_aranges
                0x00000748       0x20 /Applications/Arduino.app/Contents/Resources/Java/hardware/tools/g++_arm_none_eabi/bin/../lib/gcc/arm-none-eabi/4.4.1/thumb2/libgcc.a(_arm_muldivdf3.o)
 .debug_aranges
                0x00000768       0x20 /Applications/Arduino.app/Contents/Resources/Java/hardware/tools/g++_arm_none_eabi/bin/../lib/gcc/arm-none-eabi/4.4.1/thumb2/libgcc.a(_arm_cmpdf2.o)
 .debug_aranges
                0x00000788       0x20 /Applications/Arduino.app/Contents/Resources/Java/hardware/tools/g++_arm_none_eabi/bin/../lib/gcc/arm-none-eabi/4.4.1/thumb2/libgcc.a(_arm_fixdfsi.o)
 .debug_aranges
                0x000007a8       0x20 /Applications/Arduino.app/Contents/Resources/Java/hardware/tools/g++_arm_none_eabi/bin/../lib/gcc/arm-none-eabi/4.4.1/thumb2/libgcc.a(_arm_fixunsdfsi.o)
 .debug_aranges
                0x000007c8       0x20 /Applications/Arduino.app/Contents/Resources/Java/hardware/tools/g++_arm_none_eabi/bin/../lib/gcc/arm-none-eabi/4.4.1/thumb2/libgcc.a(_udivsi3.o)
 .debug_aranges
                0x000007e8       0x20 /Applications/Arduino.app/Contents/Resources/Java/hardware/tools/g++_arm_none_eabi/bin/../lib/gcc/arm-none-eabi/4.4.1/thumb2/libgcc.a(_dvmd_tls.o)
 .debug_aranges
                0x00000808       0x28 /Applications/Arduino.app/Contents/Resources/Java/hardware/tools/g++_arm_none_eabi/bin/../lib/gcc/arm-none-eabi/4.4.1/thumb2/crtn.o

.debug_ranges   0x00000000      0xa58
 .debug_ranges  0x00000000       0x20 /Applications/Arduino.app/Contents/Resources/Java/hardware/tools/g++_arm_none_eabi/bin/../lib/gcc/arm-none-eabi/4.4.1/thumb2/crti.o
 .debug_ranges  0x00000020       0xa0 Builds/variant.o
 .debug_ranges  0x000000c0       0x68 Builds/syscalls_sam3.o
 .debug_ranges  0x00000128       0x28 Builds/main.o
 .debug_ranges  0x00000150       0x58 Builds/embeddedcomputing.a(WInterrupts.o)
 .debug_ranges  0x000001a8       0x30 Builds/embeddedcomputing.a(cortex_handlers.o)
 .debug_ranges  0x000001d8       0x28 Builds/embeddedcomputing.a(hooks.o)
 .debug_ranges  0x00000200       0x28 Builds/embeddedcomputing.a(wiring.o)
 .debug_ranges  0x00000228       0x68 Builds/embeddedcomputing.a(wiring_analog.o)
 .debug_ranges  0x00000290       0x28 Builds/embeddedcomputing.a(wiring_digital.o)
 .debug_ranges  0x000002b8       0x30 Builds/embeddedcomputing.a(Reset.o)
 .debug_ranges  0x000002e8       0x40 Builds/embeddedcomputing.a(RingBuffer.o)
 .debug_ranges  0x00000328       0x98 Builds/embeddedcomputing.a(UARTClass.o)
 .debug_ranges  0x000003c0       0x98 Builds/embeddedcomputing.a(USARTClass.o)
 .debug_ranges  0x00000458       0x18 Builds/embeddedcomputing.a(cxxabi-compat.o)
 .debug_ranges  0x00000470      0x240 Builds/embeddedcomputing.a(USBCore.o)
 .debug_ranges  0x000006b0      0x178 Builds/embeddedcomputing.a(Print.o)
 .debug_ranges  0x00000828       0xc0 Builds/embeddedcomputing.a(CDC.o)
 .debug_ranges  0x000008e8      0x150 Builds/embeddedcomputing.a(HID.o)
 .debug_ranges  0x00000a38       0x20 /Applications/Arduino.app/Contents/Resources/Java/hardware/tools/g++_arm_none_eabi/bin/../lib/gcc/arm-none-eabi/4.4.1/thumb2/crtn.o

.debug_frame    0x00000000     0x1110
 .debug_frame   0x00000000       0xfc Builds/variant.o
 .debug_frame   0x000000fc       0xd8 Builds/syscalls_sam3.o
 .debug_frame   0x000001d4       0x4c Builds/main.o
 .debug_frame   0x00000220       0xc8 Builds/embeddedcomputing.a(WInterrupts.o)
 .debug_frame   0x000002e8       0x5c Builds/embeddedcomputing.a(cortex_handlers.o)
 .debug_frame   0x00000344       0x40 Builds/embeddedcomputing.a(hooks.o)
 .debug_frame   0x00000384       0x68 Builds/embeddedcomputing.a(wiring.o)
 .debug_frame   0x000003ec       0xc4 Builds/embeddedcomputing.a(wiring_analog.o)
 .debug_frame   0x000004b0       0x74 Builds/embeddedcomputing.a(wiring_digital.o)
 .debug_frame   0x00000524       0x5c Builds/embeddedcomputing.a(Reset.o)
 .debug_frame   0x00000580       0x64 Builds/embeddedcomputing.a(RingBuffer.o)
 .debug_frame   0x000005e4      0x104 Builds/embeddedcomputing.a(UARTClass.o)
 .debug_frame   0x000006e8      0x104 Builds/embeddedcomputing.a(USARTClass.o)
 .debug_frame   0x000007ec       0x20 Builds/embeddedcomputing.a(cxxabi-compat.o)
 .debug_frame   0x0000080c      0x280 Builds/embeddedcomputing.a(USBCore.o)
 .debug_frame   0x00000a8c      0x320 Builds/embeddedcomputing.a(Print.o)
 .debug_frame   0x00000dac      0x154 Builds/embeddedcomputing.a(CDC.o)
 .debug_frame   0x00000f00      0x1f0 Builds/embeddedcomputing.a(HID.o)
 .debug_frame   0x000010f0       0x20 /Applications/Arduino.app/Contents/Resources/Java/hardware/tools/g++_arm_none_eabi/bin/../lib/gcc/arm-none-eabi/4.4.1/thumb2/libgcc.a(_udivsi3.o)

.debug_loc      0x00000000     0x2412
 .debug_loc     0x00000000       0x70 Builds/variant.o
 .debug_loc     0x00000070       0xf4 Builds/syscalls_sam3.o
 .debug_loc     0x00000164       0x1f Builds/main.o
 .debug_loc     0x00000183      0x113 Builds/embeddedcomputing.a(WInterrupts.o)
 .debug_loc     0x00000296       0x1f Builds/embeddedcomputing.a(cortex_handlers.o)
 .debug_loc     0x000002b5       0xc1 Builds/embeddedcomputing.a(wiring.o)
 .debug_loc     0x00000376      0x23a Builds/embeddedcomputing.a(wiring_analog.o)
 .debug_loc     0x000005b0      0x114 Builds/embeddedcomputing.a(wiring_digital.o)
 .debug_loc     0x000006c4       0x1f Builds/embeddedcomputing.a(Reset.o)
 .debug_loc     0x000006e3       0x99 Builds/embeddedcomputing.a(RingBuffer.o)
 .debug_loc     0x0000077c      0x1cc Builds/embeddedcomputing.a(UARTClass.o)
 .debug_loc     0x00000948      0x1cc Builds/embeddedcomputing.a(USARTClass.o)
 .debug_loc     0x00000b14      0x6e4 Builds/embeddedcomputing.a(USBCore.o)
 .debug_loc     0x000011f8      0xa0d Builds/embeddedcomputing.a(Print.o)
 .debug_loc     0x00001c05      0x329 Builds/embeddedcomputing.a(CDC.o)
 .debug_loc     0x00001f2e      0x4e4 Builds/embeddedcomputing.a(HID.o)

.debug_pubnames
                0x00000000      0xf1a
 .debug_pubnames
                0x00000000      0x13c Builds/variant.o
 .debug_pubnames
                0x0000013c       0x87 Builds/syscalls_sam3.o
 .debug_pubnames
                0x000001c3       0x2e Builds/main.o
 .debug_pubnames
                0x000001f1       0x7e Builds/embeddedcomputing.a(WInterrupts.o)
 .debug_pubnames
                0x0000026f       0x49 Builds/embeddedcomputing.a(cortex_handlers.o)
 .debug_pubnames
                0x000002b8       0x32 Builds/embeddedcomputing.a(wiring.o)
 .debug_pubnames
                0x000002ea       0xa2 Builds/embeddedcomputing.a(wiring_analog.o)
 .debug_pubnames
                0x0000038c       0x3f Builds/embeddedcomputing.a(wiring_digital.o)
 .debug_pubnames
                0x000003cb       0x4d Builds/embeddedcomputing.a(Reset.o)
 .debug_pubnames
                0x00000418       0x63 Builds/embeddedcomputing.a(RingBuffer.o)
 .debug_pubnames
                0x0000047b      0x10e Builds/embeddedcomputing.a(UARTClass.o)
 .debug_pubnames
                0x00000589      0x11b Builds/embeddedcomputing.a(USARTClass.o)
 .debug_pubnames
                0x000006a4       0x29 Builds/embeddedcomputing.a(cxxabi-compat.o)
 .debug_pubnames
                0x000006cd      0x29c Builds/embeddedcomputing.a(USBCore.o)
 .debug_pubnames
                0x00000969      0x200 Builds/embeddedcomputing.a(Print.o)
 .debug_pubnames
                0x00000b69      0x159 Builds/embeddedcomputing.a(CDC.o)
 .debug_pubnames
                0x00000cc2      0x258 Builds/embeddedcomputing.a(HID.o)

.debug_str      0x00000000     0x3ecb
 .debug_str     0x00000000      0xcac Builds/variant.o
                                0xd69 (size before relaxing)
 .debug_str     0x00000cac      0x266 Builds/syscalls_sam3.o
                                0x33c (size before relaxing)
 .debug_str     0x00000f12      0x106 Builds/main.o
                                0x21a (size before relaxing)
 .debug_str     0x00001018      0x14a Builds/embeddedcomputing.a(WInterrupts.o)
                                0xa0f (size before relaxing)
 .debug_str     0x00001162       0x99 Builds/embeddedcomputing.a(cortex_handlers.o)
                                0x1a6 (size before relaxing)
 .debug_str     0x000011fb       0x6d Builds/embeddedcomputing.a(hooks.o)
                                 0x80 (size before relaxing)
 .debug_str     0x00001268       0x91 Builds/embeddedcomputing.a(wiring.o)
                                0x218 (size before relaxing)
 .debug_str     0x000012f9      0x537 Builds/embeddedcomputing.a(wiring_analog.o)
                                0xbf9 (size before relaxing)
 .debug_str     0x00001830       0x8d Builds/embeddedcomputing.a(wiring_digital.o)
                                0x65a (size before relaxing)
 .debug_str     0x000018bd      0x101 Builds/embeddedcomputing.a(Reset.o)
                                0x236 (size before relaxing)
 .debug_str     0x000019be       0x69 Builds/embeddedcomputing.a(RingBuffer.o)
                                0x155 (size before relaxing)
 .debug_str     0x00001a27      0xd20 Builds/embeddedcomputing.a(UARTClass.o)
                               0x1257 (size before relaxing)
 .debug_str     0x00002747      0x21f Builds/embeddedcomputing.a(USARTClass.o)
                               0x12b5 (size before relaxing)
 .debug_str     0x00002966       0x7a Builds/embeddedcomputing.a(cxxabi-compat.o)
                                 0x88 (size before relaxing)
 .debug_str     0x000029e0      0x97f Builds/embeddedcomputing.a(USBCore.o)
                                0xc63 (size before relaxing)
 .debug_str     0x0000335f      0x3ed Builds/embeddedcomputing.a(Print.o)
                                0xdb9 (size before relaxing)
 .debug_str     0x0000374c      0x409 Builds/embeddedcomputing.a(CDC.o)
                               0x1701 (size before relaxing)
 .debug_str     0x00003b55      0x376 Builds/embeddedcomputing.a(HID.o)
                                0x657 (size before relaxing)

Cross Reference Table

Symbol                                            File
ADC_Handler                                       Builds/embeddedcomputing.a(cortex_handlers.o)
                                                  /Applications/Arduino.app/Contents/Resources/Java/hardware/arduino/sam/variants/arduino_due_x/libsam_sam3x8e_gcc_rel.a(startup_sam3xa.o)
BusFault_Handler                                  Builds/embeddedcomputing.a(cortex_handlers.o)
                                                  /Applications/Arduino.app/Contents/Resources/Java/hardware/arduino/sam/variants/arduino_due_x/libsam_sam3x8e_gcc_rel.a(startup_sam3xa.o)
CAN0_Handler                                      Builds/embeddedcomputing.a(cortex_handlers.o)
                                                  /Applications/Arduino.app/Contents/Resources/Java/hardware/arduino/sam/variants/arduino_due_x/libsam_sam3x8e_gcc_rel.a(startup_sam3xa.o)
CAN1_Handler                                      Builds/embeddedcomputing.a(cortex_handlers.o)
                                                  /Applications/Arduino.app/Contents/Resources/Java/hardware/arduino/sam/variants/arduino_due_x/libsam_sam3x8e_gcc_rel.a(startup_sam3xa.o)
CDC_GetInterface(unsigned char*)                  Builds/embeddedcomputing.a(CDC.o)
                                                  Builds/embeddedcomputing.a(USBCore.o)
CDC_GetOtherInterface(unsigned char*)             Builds/embeddedcomputing.a(CDC.o)
                                                  Builds/embeddedcomputing.a(USBCore.o)
CDC_Setup(Setup&)                                 Builds/embeddedcomputing.a(CDC.o)
                                                  Builds/embeddedcomputing.a(USBCore.o)
DACC_Handler                                      Builds/embeddedcomputing.a(cortex_handlers.o)
                                                  /Applications/Arduino.app/Contents/Resources/Java/hardware/arduino/sam/variants/arduino_due_x/libsam_sam3x8e_gcc_rel.a(startup_sam3xa.o)
DMAC_Handler                                      Builds/embeddedcomputing.a(cortex_handlers.o)
                                                  /Applications/Arduino.app/Contents/Resources/Java/hardware/arduino/sam/variants/arduino_due_x/libsam_sam3x8e_gcc_rel.a(startup_sam3xa.o)
DebugMon_Handler                                  Builds/embeddedcomputing.a(cortex_handlers.o)
                                                  /Applications/Arduino.app/Contents/Resources/Java/hardware/arduino/sam/variants/arduino_due_x/libsam_sam3x8e_gcc_rel.a(startup_sam3xa.o)
EFC0_Handler                                      Builds/embeddedcomputing.a(cortex_handlers.o)
                                                  /Applications/Arduino.app/Contents/Resources/Java/hardware/arduino/sam/variants/arduino_due_x/libsam_sam3x8e_gcc_rel.a(startup_sam3xa.o)
EFC1_Handler                                      Builds/embeddedcomputing.a(cortex_handlers.o)
                                                  /Applications/Arduino.app/Contents/Resources/Java/hardware/arduino/sam/variants/arduino_due_x/libsam_sam3x8e_gcc_rel.a(startup_sam3xa.o)
EMAC_Handler                                      Builds/embeddedcomputing.a(cortex_handlers.o)
                                                  /Applications/Arduino.app/Contents/Resources/Java/hardware/arduino/sam/variants/arduino_due_x/libsam_sam3x8e_gcc_rel.a(startup_sam3xa.o)
GetTickCount                                      /Applications/Arduino.app/Contents/Resources/Java/hardware/arduino/sam/variants/arduino_due_x/libsam_sam3x8e_gcc_rel.a(timetick.o)
                                                  Builds/embeddedcomputing.a(wiring.o)
HID_GetDescriptor(int)                            Builds/embeddedcomputing.a(HID.o)
                                                  Builds/embeddedcomputing.a(USBCore.o)
HID_GetInterface(unsigned char*)                  Builds/embeddedcomputing.a(HID.o)
                                                  Builds/embeddedcomputing.a(USBCore.o)
HID_SendReport(unsigned char, void const*, unsigned long) Builds/embeddedcomputing.a(HID.o)
HID_Setup(Setup&)                                 Builds/embeddedcomputing.a(HID.o)
                                                  Builds/embeddedcomputing.a(USBCore.o)
HSMCI_Handler                                     Builds/embeddedcomputing.a(cortex_handlers.o)
                                                  /Applications/Arduino.app/Contents/Resources/Java/hardware/arduino/sam/variants/arduino_due_x/libsam_sam3x8e_gcc_rel.a(startup_sam3xa.o)
HardFault_Handler                                 Builds/embeddedcomputing.a(cortex_handlers.o)
                                                  /Applications/Arduino.app/Contents/Resources/Java/hardware/arduino/sam/variants/arduino_due_x/libsam_sam3x8e_gcc_rel.a(startup_sam3xa.o)
Keyboard                                          Builds/embeddedcomputing.a(HID.o)
Keyboard_::Keyboard_()                            Builds/embeddedcomputing.a(HID.o)
Keyboard_::Keyboard_()                            Builds/embeddedcomputing.a(HID.o)
Keyboard_::begin()                                Builds/embeddedcomputing.a(HID.o)
Keyboard_::end()                                  Builds/embeddedcomputing.a(HID.o)
Keyboard_::press(unsigned char)                   Builds/embeddedcomputing.a(HID.o)
Keyboard_::release(unsigned char)                 Builds/embeddedcomputing.a(HID.o)
Keyboard_::releaseAll()                           Builds/embeddedcomputing.a(HID.o)
Keyboard_::sendReport(KeyReport*)                 Builds/embeddedcomputing.a(HID.o)
Keyboard_::write(unsigned char)                   Builds/embeddedcomputing.a(HID.o)
MemManage_Handler                                 Builds/embeddedcomputing.a(cortex_handlers.o)
                                                  /Applications/Arduino.app/Contents/Resources/Java/hardware/arduino/sam/variants/arduino_due_x/libsam_sam3x8e_gcc_rel.a(startup_sam3xa.o)
Mouse                                             Builds/embeddedcomputing.a(HID.o)
Mouse_::Mouse_()                                  Builds/embeddedcomputing.a(HID.o)
Mouse_::Mouse_()                                  Builds/embeddedcomputing.a(HID.o)
Mouse_::begin()                                   Builds/embeddedcomputing.a(HID.o)
Mouse_::buttons(unsigned char)                    Builds/embeddedcomputing.a(HID.o)
Mouse_::click(unsigned char)                      Builds/embeddedcomputing.a(HID.o)
Mouse_::end()                                     Builds/embeddedcomputing.a(HID.o)
Mouse_::isPressed(unsigned char)                  Builds/embeddedcomputing.a(HID.o)
Mouse_::move(signed char, signed char, signed char) Builds/embeddedcomputing.a(HID.o)
Mouse_::press(unsigned char)                      Builds/embeddedcomputing.a(HID.o)
Mouse_::release(unsigned char)                    Builds/embeddedcomputing.a(HID.o)
NMI_Handler                                       Builds/embeddedcomputing.a(cortex_handlers.o)
                                                  /Applications/Arduino.app/Contents/Resources/Java/hardware/arduino/sam/variants/arduino_due_x/libsam_sam3x8e_gcc_rel.a(startup_sam3xa.o)
PIOA_Handler                                      Builds/embeddedcomputing.a(WInterrupts.o)
                                                  /Applications/Arduino.app/Contents/Resources/Java/hardware/arduino/sam/variants/arduino_due_x/libsam_sam3x8e_gcc_rel.a(startup_sam3xa.o)
PIOB_Handler                                      Builds/embeddedcomputing.a(WInterrupts.o)
                                                  /Applications/Arduino.app/Contents/Resources/Java/hardware/arduino/sam/variants/arduino_due_x/libsam_sam3x8e_gcc_rel.a(startup_sam3xa.o)
PIOC_Handler                                      Builds/embeddedcomputing.a(WInterrupts.o)
                                                  /Applications/Arduino.app/Contents/Resources/Java/hardware/arduino/sam/variants/arduino_due_x/libsam_sam3x8e_gcc_rel.a(startup_sam3xa.o)
PIOD_Handler                                      Builds/embeddedcomputing.a(WInterrupts.o)
                                                  /Applications/Arduino.app/Contents/Resources/Java/hardware/arduino/sam/variants/arduino_due_x/libsam_sam3x8e_gcc_rel.a(startup_sam3xa.o)
PIO_Clear                                         /Applications/Arduino.app/Contents/Resources/Java/hardware/arduino/sam/variants/arduino_due_x/libsam_sam3x8e_gcc_rel.a(pio.o)
PIO_Configure                                     /Applications/Arduino.app/Contents/Resources/Java/hardware/arduino/sam/variants/arduino_due_x/libsam_sam3x8e_gcc_rel.a(pio.o)
                                                  Builds/embeddedcomputing.a(wiring_digital.o)
                                                  Builds/embeddedcomputing.a(wiring_analog.o)
                                                  Builds/variant.o
PIO_DisableInterrupt                              /Applications/Arduino.app/Contents/Resources/Java/hardware/arduino/sam/variants/arduino_due_x/libsam_sam3x8e_gcc_rel.a(pio.o)
PIO_Get                                           /Applications/Arduino.app/Contents/Resources/Java/hardware/arduino/sam/variants/arduino_due_x/libsam_sam3x8e_gcc_rel.a(pio.o)
                                                  Builds/embeddedcomputing.a(wiring_digital.o)
PIO_GetOutputDataStatus                           /Applications/Arduino.app/Contents/Resources/Java/hardware/arduino/sam/variants/arduino_due_x/libsam_sam3x8e_gcc_rel.a(pio.o)
                                                  Builds/embeddedcomputing.a(wiring_digital.o)
PIO_PullUp                                        /Applications/Arduino.app/Contents/Resources/Java/hardware/arduino/sam/variants/arduino_due_x/libsam_sam3x8e_gcc_rel.a(pio.o)
                                                  Builds/embeddedcomputing.a(wiring_digital.o)
PIO_Set                                           /Applications/Arduino.app/Contents/Resources/Java/hardware/arduino/sam/variants/arduino_due_x/libsam_sam3x8e_gcc_rel.a(pio.o)
PIO_SetDebounceFilter                             /Applications/Arduino.app/Contents/Resources/Java/hardware/arduino/sam/variants/arduino_due_x/libsam_sam3x8e_gcc_rel.a(pio.o)
PIO_SetInput                                      /Applications/Arduino.app/Contents/Resources/Java/hardware/arduino/sam/variants/arduino_due_x/libsam_sam3x8e_gcc_rel.a(pio.o)
PIO_SetOutput                                     /Applications/Arduino.app/Contents/Resources/Java/hardware/arduino/sam/variants/arduino_due_x/libsam_sam3x8e_gcc_rel.a(pio.o)
                                                  Builds/embeddedcomputing.a(wiring_digital.o)
PIO_SetPeripheral                                 /Applications/Arduino.app/Contents/Resources/Java/hardware/arduino/sam/variants/arduino_due_x/libsam_sam3x8e_gcc_rel.a(pio.o)
PMC_Handler                                       Builds/embeddedcomputing.a(cortex_handlers.o)
                                                  /Applications/Arduino.app/Contents/Resources/Java/hardware/arduino/sam/variants/arduino_due_x/libsam_sam3x8e_gcc_rel.a(startup_sam3xa.o)
PWMC_ConfigureChannel                             /Applications/Arduino.app/Contents/Resources/Java/hardware/arduino/sam/variants/arduino_due_x/libsam_sam3x8e_gcc_rel.a(pwmc.o)
                                                  Builds/embeddedcomputing.a(wiring_analog.o)
PWMC_ConfigureChannelExt                          /Applications/Arduino.app/Contents/Resources/Java/hardware/arduino/sam/variants/arduino_due_x/libsam_sam3x8e_gcc_rel.a(pwmc.o)
PWMC_ConfigureClocks                              /Applications/Arduino.app/Contents/Resources/Java/hardware/arduino/sam/variants/arduino_due_x/libsam_sam3x8e_gcc_rel.a(pwmc.o)
                                                  Builds/embeddedcomputing.a(wiring_analog.o)
PWMC_ConfigureComparisonUnit                      /Applications/Arduino.app/Contents/Resources/Java/hardware/arduino/sam/variants/arduino_due_x/libsam_sam3x8e_gcc_rel.a(pwmc.o)
PWMC_ConfigureEventLineMode                       /Applications/Arduino.app/Contents/Resources/Java/hardware/arduino/sam/variants/arduino_due_x/libsam_sam3x8e_gcc_rel.a(pwmc.o)
PWMC_ConfigureSyncChannel                         /Applications/Arduino.app/Contents/Resources/Java/hardware/arduino/sam/variants/arduino_due_x/libsam_sam3x8e_gcc_rel.a(pwmc.o)
PWMC_DisableChannel                               /Applications/Arduino.app/Contents/Resources/Java/hardware/arduino/sam/variants/arduino_due_x/libsam_sam3x8e_gcc_rel.a(pwmc.o)
PWMC_DisableChannelIt                             /Applications/Arduino.app/Contents/Resources/Java/hardware/arduino/sam/variants/arduino_due_x/libsam_sam3x8e_gcc_rel.a(pwmc.o)
PWMC_DisableIt                                    /Applications/Arduino.app/Contents/Resources/Java/hardware/arduino/sam/variants/arduino_due_x/libsam_sam3x8e_gcc_rel.a(pwmc.o)
PWMC_DisableOverrideOutput                        /Applications/Arduino.app/Contents/Resources/Java/hardware/arduino/sam/variants/arduino_due_x/libsam_sam3x8e_gcc_rel.a(pwmc.o)
PWMC_EnableChannel                                /Applications/Arduino.app/Contents/Resources/Java/hardware/arduino/sam/variants/arduino_due_x/libsam_sam3x8e_gcc_rel.a(pwmc.o)
                                                  Builds/embeddedcomputing.a(wiring_analog.o)
PWMC_EnableChannelIt                              /Applications/Arduino.app/Contents/Resources/Java/hardware/arduino/sam/variants/arduino_due_x/libsam_sam3x8e_gcc_rel.a(pwmc.o)
PWMC_EnableFaultProtection                        /Applications/Arduino.app/Contents/Resources/Java/hardware/arduino/sam/variants/arduino_due_x/libsam_sam3x8e_gcc_rel.a(pwmc.o)
PWMC_EnableIt                                     /Applications/Arduino.app/Contents/Resources/Java/hardware/arduino/sam/variants/arduino_due_x/libsam_sam3x8e_gcc_rel.a(pwmc.o)
PWMC_EnableOverrideOutput                         /Applications/Arduino.app/Contents/Resources/Java/hardware/arduino/sam/variants/arduino_due_x/libsam_sam3x8e_gcc_rel.a(pwmc.o)
PWMC_FaultClear                                   /Applications/Arduino.app/Contents/Resources/Java/hardware/arduino/sam/variants/arduino_due_x/libsam_sam3x8e_gcc_rel.a(pwmc.o)
PWMC_SetDeadTime                                  /Applications/Arduino.app/Contents/Resources/Java/hardware/arduino/sam/variants/arduino_due_x/libsam_sam3x8e_gcc_rel.a(pwmc.o)
PWMC_SetDutyCycle                                 /Applications/Arduino.app/Contents/Resources/Java/hardware/arduino/sam/variants/arduino_due_x/libsam_sam3x8e_gcc_rel.a(pwmc.o)
                                                  Builds/embeddedcomputing.a(wiring_analog.o)
PWMC_SetFaultMode                                 /Applications/Arduino.app/Contents/Resources/Java/hardware/arduino/sam/variants/arduino_due_x/libsam_sam3x8e_gcc_rel.a(pwmc.o)
PWMC_SetFaultProtectionValue                      /Applications/Arduino.app/Contents/Resources/Java/hardware/arduino/sam/variants/arduino_due_x/libsam_sam3x8e_gcc_rel.a(pwmc.o)
PWMC_SetOverrideValue                             /Applications/Arduino.app/Contents/Resources/Java/hardware/arduino/sam/variants/arduino_due_x/libsam_sam3x8e_gcc_rel.a(pwmc.o)
PWMC_SetPeriod                                    /Applications/Arduino.app/Contents/Resources/Java/hardware/arduino/sam/variants/arduino_due_x/libsam_sam3x8e_gcc_rel.a(pwmc.o)
                                                  Builds/embeddedcomputing.a(wiring_analog.o)
PWMC_SetSyncChannelUpdatePeriod                   /Applications/Arduino.app/Contents/Resources/Java/hardware/arduino/sam/variants/arduino_due_x/libsam_sam3x8e_gcc_rel.a(pwmc.o)
PWMC_SetSyncChannelUpdateUnlock                   /Applications/Arduino.app/Contents/Resources/Java/hardware/arduino/sam/variants/arduino_due_x/libsam_sam3x8e_gcc_rel.a(pwmc.o)
PWMC_WriteBuffer                                  /Applications/Arduino.app/Contents/Resources/Java/hardware/arduino/sam/variants/arduino_due_x/libsam_sam3x8e_gcc_rel.a(pwmc.o)
PWM_Handler                                       Builds/embeddedcomputing.a(cortex_handlers.o)
                                                  /Applications/Arduino.app/Contents/Resources/Java/hardware/arduino/sam/variants/arduino_due_x/libsam_sam3x8e_gcc_rel.a(startup_sam3xa.o)
PendSV_Handler                                    Builds/embeddedcomputing.a(cortex_handlers.o)
                                                  /Applications/Arduino.app/Contents/Resources/Java/hardware/arduino/sam/variants/arduino_due_x/libsam_sam3x8e_gcc_rel.a(startup_sam3xa.o)
Print::print(Printable const&)                    Builds/embeddedcomputing.a(Print.o)
Print::print(String const&)                       Builds/embeddedcomputing.a(Print.o)
Print::print(__FlashStringHelper const*)          Builds/embeddedcomputing.a(Print.o)
Print::print(char const*)                         Builds/embeddedcomputing.a(Print.o)
Print::print(char)                                Builds/embeddedcomputing.a(Print.o)
Print::print(double, int)                         Builds/embeddedcomputing.a(Print.o)
Print::print(int, int)                            Builds/embeddedcomputing.a(Print.o)
Print::print(long, int)                           Builds/embeddedcomputing.a(Print.o)
Print::print(unsigned char, int)                  Builds/embeddedcomputing.a(Print.o)
Print::print(unsigned int, int)                   Builds/embeddedcomputing.a(Print.o)
Print::print(unsigned long, int)                  Builds/embeddedcomputing.a(Print.o)
Print::printFloat(double, unsigned char)          Builds/embeddedcomputing.a(Print.o)
Print::printNumber(unsigned long, unsigned char)  Builds/embeddedcomputing.a(Print.o)
Print::println()                                  Builds/embeddedcomputing.a(Print.o)
Print::println(Printable const&)                  Builds/embeddedcomputing.a(Print.o)
Print::println(String const&)                     Builds/embeddedcomputing.a(Print.o)
Print::println(__FlashStringHelper const*)        Builds/embeddedcomputing.a(Print.o)
Print::println(char const*)                       Builds/embeddedcomputing.a(Print.o)
Print::println(char)                              Builds/embeddedcomputing.a(Print.o)
Print::println(double, int)                       Builds/embeddedcomputing.a(Print.o)
Print::println(int, int)                          Builds/embeddedcomputing.a(Print.o)
Print::println(long, int)                         Builds/embeddedcomputing.a(Print.o)
Print::println(unsigned char, int)                Builds/embeddedcomputing.a(Print.o)
Print::println(unsigned int, int)                 Builds/embeddedcomputing.a(Print.o)
Print::println(unsigned long, int)                Builds/embeddedcomputing.a(Print.o)
Print::write(char const*)                         Builds/embeddedcomputing.a(Print.o)
Print::write(unsigned char const*, unsigned int)  Builds/embeddedcomputing.a(Print.o)
                                                  Builds/embeddedcomputing.a(HID.o)
                                                  Builds/embeddedcomputing.a(CDC.o)
                                                  Builds/embeddedcomputing.a(USARTClass.o)
                                                  Builds/embeddedcomputing.a(UARTClass.o)
RSTC_Handler                                      Builds/embeddedcomputing.a(cortex_handlers.o)
                                                  /Applications/Arduino.app/Contents/Resources/Java/hardware/arduino/sam/variants/arduino_due_x/libsam_sam3x8e_gcc_rel.a(startup_sam3xa.o)
RTC_Handler                                       Builds/embeddedcomputing.a(cortex_handlers.o)
                                                  /Applications/Arduino.app/Contents/Resources/Java/hardware/arduino/sam/variants/arduino_due_x/libsam_sam3x8e_gcc_rel.a(startup_sam3xa.o)
RTT_Handler                                       Builds/embeddedcomputing.a(cortex_handlers.o)
                                                  /Applications/Arduino.app/Contents/Resources/Java/hardware/arduino/sam/variants/arduino_due_x/libsam_sam3x8e_gcc_rel.a(startup_sam3xa.o)
Reset_Handler                                     /Applications/Arduino.app/Contents/Resources/Java/hardware/arduino/sam/variants/arduino_due_x/libsam_sam3x8e_gcc_rel.a(startup_sam3xa.o)
RingBuffer::RingBuffer()                          Builds/embeddedcomputing.a(RingBuffer.o)
                                                  Builds/variant.o
RingBuffer::RingBuffer()                          Builds/embeddedcomputing.a(RingBuffer.o)
RingBuffer::store_char(unsigned char)             Builds/embeddedcomputing.a(RingBuffer.o)
                                                  Builds/embeddedcomputing.a(USARTClass.o)
                                                  Builds/embeddedcomputing.a(UARTClass.o)
RxLEDPulse                                        Builds/embeddedcomputing.a(USBCore.o)
SMC_Handler                                       Builds/embeddedcomputing.a(cortex_handlers.o)
                                                  /Applications/Arduino.app/Contents/Resources/Java/hardware/arduino/sam/variants/arduino_due_x/libsam_sam3x8e_gcc_rel.a(startup_sam3xa.o)
SPI0_Handler                                      Builds/embeddedcomputing.a(cortex_handlers.o)
                                                  /Applications/Arduino.app/Contents/Resources/Java/hardware/arduino/sam/variants/arduino_due_x/libsam_sam3x8e_gcc_rel.a(startup_sam3xa.o)
SSC_Handler                                       Builds/embeddedcomputing.a(cortex_handlers.o)
                                                  /Applications/Arduino.app/Contents/Resources/Java/hardware/arduino/sam/variants/arduino_due_x/libsam_sam3x8e_gcc_rel.a(startup_sam3xa.o)
STRING_LANGUAGE                                   Builds/embeddedcomputing.a(USBCore.o)
STRING_MANUFACTURER                               Builds/embeddedcomputing.a(USBCore.o)
STRING_PRODUCT                                    Builds/embeddedcomputing.a(USBCore.o)
SUPC_Handler                                      Builds/embeddedcomputing.a(cortex_handlers.o)
                                                  /Applications/Arduino.app/Contents/Resources/Java/hardware/arduino/sam/variants/arduino_due_x/libsam_sam3x8e_gcc_rel.a(startup_sam3xa.o)
SVC_Handler                                       Builds/embeddedcomputing.a(cortex_handlers.o)
                                                  /Applications/Arduino.app/Contents/Resources/Java/hardware/arduino/sam/variants/arduino_due_x/libsam_sam3x8e_gcc_rel.a(startup_sam3xa.o)
Serial                                            Builds/variant.o
Serial1                                           Builds/variant.o
Serial2                                           Builds/variant.o
Serial3                                           Builds/variant.o
SerialUSB                                         Builds/embeddedcomputing.a(CDC.o)
                                                  Builds/embeddedcomputing.a(USBCore.o)
Serial_::accept()                                 Builds/embeddedcomputing.a(CDC.o)
                                                  Builds/embeddedcomputing.a(USBCore.o)
Serial_::available()                              Builds/embeddedcomputing.a(CDC.o)
Serial_::begin(unsigned long)                     Builds/embeddedcomputing.a(CDC.o)
Serial_::begin(unsigned long, unsigned char)      Builds/embeddedcomputing.a(CDC.o)
Serial_::end()                                    Builds/embeddedcomputing.a(CDC.o)
Serial_::flush()                                  Builds/embeddedcomputing.a(CDC.o)
Serial_::operator bool()                          Builds/embeddedcomputing.a(CDC.o)
Serial_::peek()                                   Builds/embeddedcomputing.a(CDC.o)
Serial_::read()                                   Builds/embeddedcomputing.a(CDC.o)
Serial_::write(unsigned char const*, unsigned int) Builds/embeddedcomputing.a(CDC.o)
Serial_::write(unsigned char)                     Builds/embeddedcomputing.a(CDC.o)
Sleep                                             /Applications/Arduino.app/Contents/Resources/Java/hardware/arduino/sam/variants/arduino_due_x/libsam_sam3x8e_gcc_rel.a(timetick.o)
SysTick_Handler                                   Builds/embeddedcomputing.a(cortex_handlers.o)
                                                  /Applications/Arduino.app/Contents/Resources/Java/hardware/arduino/sam/variants/arduino_due_x/libsam_sam3x8e_gcc_rel.a(startup_sam3xa.o)
SystemCoreClock                                   /Applications/Arduino.app/Contents/Resources/Java/hardware/arduino/sam/variants/arduino_due_x/libsam_sam3x8e_gcc_rel.a(system_sam3xa.o)
                                                  Builds/embeddedcomputing.a(USARTClass.o)
                                                  Builds/embeddedcomputing.a(UARTClass.o)
                                                  Builds/variant.o
SystemCoreClockUpdate                             /Applications/Arduino.app/Contents/Resources/Java/hardware/arduino/sam/variants/arduino_due_x/libsam_sam3x8e_gcc_rel.a(system_sam3xa.o)
SystemInit                                        /Applications/Arduino.app/Contents/Resources/Java/hardware/arduino/sam/variants/arduino_due_x/libsam_sam3x8e_gcc_rel.a(system_sam3xa.o)
                                                  Builds/variant.o
TC0_Handler                                       Builds/embeddedcomputing.a(cortex_handlers.o)
                                                  /Applications/Arduino.app/Contents/Resources/Java/hardware/arduino/sam/variants/arduino_due_x/libsam_sam3x8e_gcc_rel.a(startup_sam3xa.o)
TC1_Handler                                       Builds/embeddedcomputing.a(cortex_handlers.o)
                                                  /Applications/Arduino.app/Contents/Resources/Java/hardware/arduino/sam/variants/arduino_due_x/libsam_sam3x8e_gcc_rel.a(startup_sam3xa.o)
TC2_Handler                                       Builds/embeddedcomputing.a(cortex_handlers.o)
                                                  /Applications/Arduino.app/Contents/Resources/Java/hardware/arduino/sam/variants/arduino_due_x/libsam_sam3x8e_gcc_rel.a(startup_sam3xa.o)
TC3_Handler                                       Builds/embeddedcomputing.a(cortex_handlers.o)
                                                  /Applications/Arduino.app/Contents/Resources/Java/hardware/arduino/sam/variants/arduino_due_x/libsam_sam3x8e_gcc_rel.a(startup_sam3xa.o)
TC4_Handler                                       Builds/embeddedcomputing.a(cortex_handlers.o)
                                                  /Applications/Arduino.app/Contents/Resources/Java/hardware/arduino/sam/variants/arduino_due_x/libsam_sam3x8e_gcc_rel.a(startup_sam3xa.o)
TC5_Handler                                       Builds/embeddedcomputing.a(cortex_handlers.o)
                                                  /Applications/Arduino.app/Contents/Resources/Java/hardware/arduino/sam/variants/arduino_due_x/libsam_sam3x8e_gcc_rel.a(startup_sam3xa.o)
TC6_Handler                                       Builds/embeddedcomputing.a(cortex_handlers.o)
                                                  /Applications/Arduino.app/Contents/Resources/Java/hardware/arduino/sam/variants/arduino_due_x/libsam_sam3x8e_gcc_rel.a(startup_sam3xa.o)
TC7_Handler                                       Builds/embeddedcomputing.a(cortex_handlers.o)
                                                  /Applications/Arduino.app/Contents/Resources/Java/hardware/arduino/sam/variants/arduino_due_x/libsam_sam3x8e_gcc_rel.a(startup_sam3xa.o)
TC8_Handler                                       Builds/embeddedcomputing.a(cortex_handlers.o)
                                                  /Applications/Arduino.app/Contents/Resources/Java/hardware/arduino/sam/variants/arduino_due_x/libsam_sam3x8e_gcc_rel.a(startup_sam3xa.o)
TC_Configure                                      /Applications/Arduino.app/Contents/Resources/Java/hardware/arduino/sam/variants/arduino_due_x/libsam_sam3x8e_gcc_rel.a(tc.o)
                                                  Builds/embeddedcomputing.a(wiring_analog.o)
TC_FindMckDivisor                                 /Applications/Arduino.app/Contents/Resources/Java/hardware/arduino/sam/variants/arduino_due_x/libsam_sam3x8e_gcc_rel.a(tc.o)
TC_GetStatus                                      /Applications/Arduino.app/Contents/Resources/Java/hardware/arduino/sam/variants/arduino_due_x/libsam_sam3x8e_gcc_rel.a(tc.o)
TC_ReadCV                                         /Applications/Arduino.app/Contents/Resources/Java/hardware/arduino/sam/variants/arduino_due_x/libsam_sam3x8e_gcc_rel.a(tc.o)
TC_SetRA                                          /Applications/Arduino.app/Contents/Resources/Java/hardware/arduino/sam/variants/arduino_due_x/libsam_sam3x8e_gcc_rel.a(tc.o)
                                                  Builds/embeddedcomputing.a(wiring_analog.o)
TC_SetRB                                          /Applications/Arduino.app/Contents/Resources/Java/hardware/arduino/sam/variants/arduino_due_x/libsam_sam3x8e_gcc_rel.a(tc.o)
                                                  Builds/embeddedcomputing.a(wiring_analog.o)
TC_SetRC                                          /Applications/Arduino.app/Contents/Resources/Java/hardware/arduino/sam/variants/arduino_due_x/libsam_sam3x8e_gcc_rel.a(tc.o)
                                                  Builds/embeddedcomputing.a(wiring_analog.o)
TC_Start                                          /Applications/Arduino.app/Contents/Resources/Java/hardware/arduino/sam/variants/arduino_due_x/libsam_sam3x8e_gcc_rel.a(tc.o)
                                                  Builds/embeddedcomputing.a(wiring_analog.o)
TC_Stop                                           /Applications/Arduino.app/Contents/Resources/Java/hardware/arduino/sam/variants/arduino_due_x/libsam_sam3x8e_gcc_rel.a(tc.o)
TRNG_Handler                                      Builds/embeddedcomputing.a(cortex_handlers.o)
                                                  /Applications/Arduino.app/Contents/Resources/Java/hardware/arduino/sam/variants/arduino_due_x/libsam_sam3x8e_gcc_rel.a(startup_sam3xa.o)
TWI0_Handler                                      Builds/embeddedcomputing.a(cortex_handlers.o)
                                                  /Applications/Arduino.app/Contents/Resources/Java/hardware/arduino/sam/variants/arduino_due_x/libsam_sam3x8e_gcc_rel.a(startup_sam3xa.o)
TWI1_Handler                                      Builds/embeddedcomputing.a(cortex_handlers.o)
                                                  /Applications/Arduino.app/Contents/Resources/Java/hardware/arduino/sam/variants/arduino_due_x/libsam_sam3x8e_gcc_rel.a(startup_sam3xa.o)
TimeTick_Configure                                /Applications/Arduino.app/Contents/Resources/Java/hardware/arduino/sam/variants/arduino_due_x/libsam_sam3x8e_gcc_rel.a(timetick.o)
TimeTick_Increment                                /Applications/Arduino.app/Contents/Resources/Java/hardware/arduino/sam/variants/arduino_due_x/libsam_sam3x8e_gcc_rel.a(timetick.o)
                                                  Builds/embeddedcomputing.a(cortex_handlers.o)
TxLEDPulse                                        Builds/embeddedcomputing.a(USBCore.o)
UARTClass::IrqHandler()                           Builds/embeddedcomputing.a(UARTClass.o)
                                                  Builds/variant.o
UARTClass::UARTClass(Uart*, IRQn, unsigned long, RingBuffer*) Builds/embeddedcomputing.a(UARTClass.o)
                                                  Builds/variant.o
UARTClass::UARTClass(Uart*, IRQn, unsigned long, RingBuffer*) Builds/embeddedcomputing.a(UARTClass.o)
UARTClass::available()                            Builds/embeddedcomputing.a(UARTClass.o)
                                                  Builds/variant.o
UARTClass::begin(unsigned long)                   Builds/embeddedcomputing.a(UARTClass.o)
UARTClass::end()                                  Builds/embeddedcomputing.a(UARTClass.o)
UARTClass::flush()                                Builds/embeddedcomputing.a(UARTClass.o)
UARTClass::operator bool()                        Builds/embeddedcomputing.a(UARTClass.o)
UARTClass::peek()                                 Builds/embeddedcomputing.a(UARTClass.o)
UARTClass::read()                                 Builds/embeddedcomputing.a(UARTClass.o)
UARTClass::write(unsigned char)                   Builds/embeddedcomputing.a(UARTClass.o)
UART_Handler                                      Builds/variant.o
                                                  /Applications/Arduino.app/Contents/Resources/Java/hardware/arduino/sam/variants/arduino_due_x/libsam_sam3x8e_gcc_rel.a(startup_sam3xa.o)
UDD_Attach                                        /Applications/Arduino.app/Contents/Resources/Java/hardware/arduino/sam/variants/arduino_due_x/libsam_sam3x8e_gcc_rel.a(uotghs_device.o)
                                                  Builds/embeddedcomputing.a(USBCore.o)
UDD_ClearIN                                       /Applications/Arduino.app/Contents/Resources/Java/hardware/arduino/sam/variants/arduino_due_x/libsam_sam3x8e_gcc_rel.a(uotghs_device.o)
                                                  Builds/embeddedcomputing.a(USBCore.o)
UDD_ClearOUT                                      /Applications/Arduino.app/Contents/Resources/Java/hardware/arduino/sam/variants/arduino_due_x/libsam_sam3x8e_gcc_rel.a(uotghs_device.o)
                                                  Builds/embeddedcomputing.a(USBCore.o)
UDD_ClearSetupInt                                 /Applications/Arduino.app/Contents/Resources/Java/hardware/arduino/sam/variants/arduino_due_x/libsam_sam3x8e_gcc_rel.a(uotghs_device.o)
                                                  Builds/embeddedcomputing.a(USBCore.o)
UDD_Detach                                        /Applications/Arduino.app/Contents/Resources/Java/hardware/arduino/sam/variants/arduino_due_x/libsam_sam3x8e_gcc_rel.a(uotghs_device.o)
                                                  Builds/embeddedcomputing.a(USBCore.o)
UDD_FifoByteCount                                 /Applications/Arduino.app/Contents/Resources/Java/hardware/arduino/sam/variants/arduino_due_x/libsam_sam3x8e_gcc_rel.a(uotghs_device.o)
                                                  Builds/embeddedcomputing.a(USBCore.o)
UDD_GetFrameNumber                                /Applications/Arduino.app/Contents/Resources/Java/hardware/arduino/sam/variants/arduino_due_x/libsam_sam3x8e_gcc_rel.a(uotghs_device.o)
                                                  Builds/embeddedcomputing.a(USBCore.o)
UDD_Init                                          /Applications/Arduino.app/Contents/Resources/Java/hardware/arduino/sam/variants/arduino_due_x/libsam_sam3x8e_gcc_rel.a(uotghs_device.o)
                                                  Builds/embeddedcomputing.a(USBCore.o)
UDD_InitEP                                        /Applications/Arduino.app/Contents/Resources/Java/hardware/arduino/sam/variants/arduino_due_x/libsam_sam3x8e_gcc_rel.a(uotghs_device.o)
                                                  Builds/embeddedcomputing.a(USBCore.o)
UDD_InitEndpoints                                 /Applications/Arduino.app/Contents/Resources/Java/hardware/arduino/sam/variants/arduino_due_x/libsam_sam3x8e_gcc_rel.a(uotghs_device.o)
                                                  Builds/embeddedcomputing.a(USBCore.o)
UDD_ReadWriteAllowed                              /Applications/Arduino.app/Contents/Resources/Java/hardware/arduino/sam/variants/arduino_due_x/libsam_sam3x8e_gcc_rel.a(uotghs_device.o)
UDD_ReceivedSetupInt                              /Applications/Arduino.app/Contents/Resources/Java/hardware/arduino/sam/variants/arduino_due_x/libsam_sam3x8e_gcc_rel.a(uotghs_device.o)
                                                  Builds/embeddedcomputing.a(USBCore.o)
UDD_Recv                                          /Applications/Arduino.app/Contents/Resources/Java/hardware/arduino/sam/variants/arduino_due_x/libsam_sam3x8e_gcc_rel.a(uotghs_device.o)
                                                  Builds/embeddedcomputing.a(USBCore.o)
UDD_Recv8                                         /Applications/Arduino.app/Contents/Resources/Java/hardware/arduino/sam/variants/arduino_due_x/libsam_sam3x8e_gcc_rel.a(uotghs_device.o)
                                                  Builds/embeddedcomputing.a(USBCore.o)
UDD_ReleaseRX                                     /Applications/Arduino.app/Contents/Resources/Java/hardware/arduino/sam/variants/arduino_due_x/libsam_sam3x8e_gcc_rel.a(uotghs_device.o)
                                                  Builds/embeddedcomputing.a(USBCore.o)
UDD_ReleaseTX                                     /Applications/Arduino.app/Contents/Resources/Java/hardware/arduino/sam/variants/arduino_due_x/libsam_sam3x8e_gcc_rel.a(uotghs_device.o)
                                                  Builds/embeddedcomputing.a(USBCore.o)
UDD_Send                                          /Applications/Arduino.app/Contents/Resources/Java/hardware/arduino/sam/variants/arduino_due_x/libsam_sam3x8e_gcc_rel.a(uotghs_device.o)
                                                  Builds/embeddedcomputing.a(USBCore.o)
UDD_Send8                                         /Applications/Arduino.app/Contents/Resources/Java/hardware/arduino/sam/variants/arduino_due_x/libsam_sam3x8e_gcc_rel.a(uotghs_device.o)
                                                  Builds/embeddedcomputing.a(USBCore.o)
UDD_SetAddress                                    /Applications/Arduino.app/Contents/Resources/Java/hardware/arduino/sam/variants/arduino_due_x/libsam_sam3x8e_gcc_rel.a(uotghs_device.o)
                                                  Builds/embeddedcomputing.a(USBCore.o)
UDD_SetStack                                      /Applications/Arduino.app/Contents/Resources/Java/hardware/arduino/sam/variants/arduino_due_x/libsam_sam3x8e_gcc_rel.a(uotghs_device.o)
                                                  Builds/embeddedcomputing.a(USBCore.o)
UDD_Stall                                         /Applications/Arduino.app/Contents/Resources/Java/hardware/arduino/sam/variants/arduino_due_x/libsam_sam3x8e_gcc_rel.a(uotghs_device.o)
                                                  Builds/embeddedcomputing.a(USBCore.o)
UDD_WaitForINOrOUT                                /Applications/Arduino.app/Contents/Resources/Java/hardware/arduino/sam/variants/arduino_due_x/libsam_sam3x8e_gcc_rel.a(uotghs_device.o)
UDD_WaitIN                                        /Applications/Arduino.app/Contents/Resources/Java/hardware/arduino/sam/variants/arduino_due_x/libsam_sam3x8e_gcc_rel.a(uotghs_device.o)
                                                  Builds/embeddedcomputing.a(USBCore.o)
UDD_WaitOUT                                       /Applications/Arduino.app/Contents/Resources/Java/hardware/arduino/sam/variants/arduino_due_x/libsam_sam3x8e_gcc_rel.a(uotghs_device.o)
                                                  Builds/embeddedcomputing.a(USBCore.o)
UOTGHS_Handler                                    /Applications/Arduino.app/Contents/Resources/Java/hardware/arduino/sam/variants/arduino_due_x/libsam_sam3x8e_gcc_rel.a(uotghs.o)
                                                  /Applications/Arduino.app/Contents/Resources/Java/hardware/arduino/sam/variants/arduino_due_x/libsam_sam3x8e_gcc_rel.a(startup_sam3xa.o)
USART0_Handler                                    Builds/variant.o
                                                  /Applications/Arduino.app/Contents/Resources/Java/hardware/arduino/sam/variants/arduino_due_x/libsam_sam3x8e_gcc_rel.a(startup_sam3xa.o)
USART1_Handler                                    Builds/variant.o
                                                  /Applications/Arduino.app/Contents/Resources/Java/hardware/arduino/sam/variants/arduino_due_x/libsam_sam3x8e_gcc_rel.a(startup_sam3xa.o)
USART2_Handler                                    Builds/embeddedcomputing.a(cortex_handlers.o)
                                                  /Applications/Arduino.app/Contents/Resources/Java/hardware/arduino/sam/variants/arduino_due_x/libsam_sam3x8e_gcc_rel.a(startup_sam3xa.o)
USART3_Handler                                    Builds/variant.o
                                                  /Applications/Arduino.app/Contents/Resources/Java/hardware/arduino/sam/variants/arduino_due_x/libsam_sam3x8e_gcc_rel.a(startup_sam3xa.o)
USARTClass::IrqHandler()                          Builds/embeddedcomputing.a(USARTClass.o)
                                                  Builds/variant.o
USARTClass::USARTClass(Usart*, IRQn, unsigned long, RingBuffer*) Builds/embeddedcomputing.a(USARTClass.o)
USARTClass::USARTClass(Usart*, IRQn, unsigned long, RingBuffer*) Builds/embeddedcomputing.a(USARTClass.o)
                                                  Builds/variant.o
USARTClass::available()                           Builds/embeddedcomputing.a(USARTClass.o)
                                                  Builds/variant.o
USARTClass::begin(unsigned long)                  Builds/embeddedcomputing.a(USARTClass.o)
USARTClass::end()                                 Builds/embeddedcomputing.a(USARTClass.o)
USARTClass::flush()                               Builds/embeddedcomputing.a(USARTClass.o)
USARTClass::operator bool()                       Builds/embeddedcomputing.a(USARTClass.o)
USARTClass::peek()                                Builds/embeddedcomputing.a(USARTClass.o)
USARTClass::read()                                Builds/embeddedcomputing.a(USARTClass.o)
USARTClass::write(unsigned char)                  Builds/embeddedcomputing.a(USARTClass.o)
USBD_Available(unsigned long)                     Builds/embeddedcomputing.a(USBCore.o)
                                                  Builds/embeddedcomputing.a(CDC.o)
USBD_ClassInterfaceRequest(Setup&)                Builds/embeddedcomputing.a(USBCore.o)
USBD_Connected()                                  Builds/embeddedcomputing.a(USBCore.o)
USBD_Flush(unsigned long)                         Builds/embeddedcomputing.a(USBCore.o)
                                                  Builds/embeddedcomputing.a(CDC.o)
USBD_InitControl(int)                             Builds/embeddedcomputing.a(USBCore.o)
USBD_Recv(unsigned long)                          Builds/embeddedcomputing.a(USBCore.o)
                                                  Builds/embeddedcomputing.a(CDC.o)
USBD_Recv(unsigned long, void*, unsigned long)    Builds/embeddedcomputing.a(USBCore.o)
USBD_RecvControl(void*, unsigned long)            Builds/embeddedcomputing.a(USBCore.o)
                                                  Builds/embeddedcomputing.a(CDC.o)
USBD_Send(unsigned long, void const*, unsigned long) Builds/embeddedcomputing.a(USBCore.o)
                                                  Builds/embeddedcomputing.a(HID.o)
                                                  Builds/embeddedcomputing.a(CDC.o)
USBD_SendControl(unsigned char, void const*, unsigned long) Builds/embeddedcomputing.a(USBCore.o)
                                                  Builds/embeddedcomputing.a(HID.o)
                                                  Builds/embeddedcomputing.a(CDC.o)
USBD_SendInterfaces()                             Builds/embeddedcomputing.a(USBCore.o)
USBD_SendOtherInterfaces()                        Builds/embeddedcomputing.a(USBCore.o)
USBDevice                                         Builds/embeddedcomputing.a(USBCore.o)
                                                  Builds/main.o
USBDevice_::USBDevice_()                          Builds/embeddedcomputing.a(USBCore.o)
USBDevice_::USBDevice_()                          Builds/embeddedcomputing.a(USBCore.o)
USBDevice_::attach()                              Builds/embeddedcomputing.a(USBCore.o)
                                                  Builds/main.o
USBDevice_::configured()                          Builds/embeddedcomputing.a(USBCore.o)
USBDevice_::detach()                              Builds/embeddedcomputing.a(USBCore.o)
USBDevice_::poll()                                Builds/embeddedcomputing.a(USBCore.o)
USB_DeviceDescriptor                              Builds/embeddedcomputing.a(USBCore.o)
USB_DeviceDescriptorA                             Builds/embeddedcomputing.a(USBCore.o)
UsageFault_Handler                                Builds/embeddedcomputing.a(cortex_handlers.o)
                                                  /Applications/Arduino.app/Contents/Resources/Java/hardware/arduino/sam/variants/arduino_due_x/libsam_sam3x8e_gcc_rel.a(startup_sam3xa.o)
WDT_Disable                                       /Applications/Arduino.app/Contents/Resources/Java/hardware/arduino/sam/variants/arduino_due_x/libsam_sam3x8e_gcc_rel.a(wdt.o)
                                                  Builds/variant.o
WDT_Enable                                        /Applications/Arduino.app/Contents/Resources/Java/hardware/arduino/sam/variants/arduino_due_x/libsam_sam3x8e_gcc_rel.a(wdt.o)
WDT_GetPeriod                                     /Applications/Arduino.app/Contents/Resources/Java/hardware/arduino/sam/variants/arduino_due_x/libsam_sam3x8e_gcc_rel.a(wdt.o)
WDT_GetStatus                                     /Applications/Arduino.app/Contents/Resources/Java/hardware/arduino/sam/variants/arduino_due_x/libsam_sam3x8e_gcc_rel.a(wdt.o)
WDT_Handler                                       Builds/embeddedcomputing.a(cortex_handlers.o)
                                                  /Applications/Arduino.app/Contents/Resources/Java/hardware/arduino/sam/variants/arduino_due_x/libsam_sam3x8e_gcc_rel.a(startup_sam3xa.o)
WDT_Restart                                       /Applications/Arduino.app/Contents/Resources/Java/hardware/arduino/sam/variants/arduino_due_x/libsam_sam3x8e_gcc_rel.a(wdt.o)
Wait                                              /Applications/Arduino.app/Contents/Resources/Java/hardware/arduino/sam/variants/arduino_due_x/libsam_sam3x8e_gcc_rel.a(timetick.o)
_Jv_RegisterClasses                               /Applications/Arduino.app/Contents/Resources/Java/hardware/tools/g++_arm_none_eabi/bin/../lib/gcc/arm-none-eabi/4.4.1/thumb2/crtbegin.o
__adddf3                                          /Applications/Arduino.app/Contents/Resources/Java/hardware/tools/g++_arm_none_eabi/bin/../lib/gcc/arm-none-eabi/4.4.1/thumb2/libgcc.a(_arm_addsubdf3.o)
__aeabi_cdcmpeq                                   /Applications/Arduino.app/Contents/Resources/Java/hardware/tools/g++_arm_none_eabi/bin/../lib/gcc/arm-none-eabi/4.4.1/thumb2/libgcc.a(_arm_cmpdf2.o)
__aeabi_cdcmple                                   /Applications/Arduino.app/Contents/Resources/Java/hardware/tools/g++_arm_none_eabi/bin/../lib/gcc/arm-none-eabi/4.4.1/thumb2/libgcc.a(_arm_cmpdf2.o)
__aeabi_cdrcmple                                  /Applications/Arduino.app/Contents/Resources/Java/hardware/tools/g++_arm_none_eabi/bin/../lib/gcc/arm-none-eabi/4.4.1/thumb2/libgcc.a(_arm_cmpdf2.o)
__aeabi_d2iz                                      /Applications/Arduino.app/Contents/Resources/Java/hardware/tools/g++_arm_none_eabi/bin/../lib/gcc/arm-none-eabi/4.4.1/thumb2/libgcc.a(_arm_fixdfsi.o)
                                                  Builds/embeddedcomputing.a(Print.o)
__aeabi_d2uiz                                     /Applications/Arduino.app/Contents/Resources/Java/hardware/tools/g++_arm_none_eabi/bin/../lib/gcc/arm-none-eabi/4.4.1/thumb2/libgcc.a(_arm_fixunsdfsi.o)
                                                  Builds/embeddedcomputing.a(Print.o)
__aeabi_dadd                                      /Applications/Arduino.app/Contents/Resources/Java/hardware/tools/g++_arm_none_eabi/bin/../lib/gcc/arm-none-eabi/4.4.1/thumb2/libgcc.a(_arm_addsubdf3.o)
                                                  Builds/embeddedcomputing.a(Print.o)
__aeabi_dcmpeq                                    /Applications/Arduino.app/Contents/Resources/Java/hardware/tools/g++_arm_none_eabi/bin/../lib/gcc/arm-none-eabi/4.4.1/thumb2/libgcc.a(_arm_cmpdf2.o)
__aeabi_dcmpge                                    /Applications/Arduino.app/Contents/Resources/Java/hardware/tools/g++_arm_none_eabi/bin/../lib/gcc/arm-none-eabi/4.4.1/thumb2/libgcc.a(_arm_cmpdf2.o)
__aeabi_dcmpgt                                    /Applications/Arduino.app/Contents/Resources/Java/hardware/tools/g++_arm_none_eabi/bin/../lib/gcc/arm-none-eabi/4.4.1/thumb2/libgcc.a(_arm_cmpdf2.o)
                                                  Builds/embeddedcomputing.a(Print.o)
__aeabi_dcmple                                    /Applications/Arduino.app/Contents/Resources/Java/hardware/tools/g++_arm_none_eabi/bin/../lib/gcc/arm-none-eabi/4.4.1/thumb2/libgcc.a(_arm_cmpdf2.o)
__aeabi_dcmplt                                    /Applications/Arduino.app/Contents/Resources/Java/hardware/tools/g++_arm_none_eabi/bin/../lib/gcc/arm-none-eabi/4.4.1/thumb2/libgcc.a(_arm_cmpdf2.o)
                                                  Builds/embeddedcomputing.a(Print.o)
__aeabi_ddiv                                      /Applications/Arduino.app/Contents/Resources/Java/hardware/tools/g++_arm_none_eabi/bin/../lib/gcc/arm-none-eabi/4.4.1/thumb2/libgcc.a(_arm_muldivdf3.o)
                                                  Builds/embeddedcomputing.a(Print.o)
__aeabi_dmul                                      /Applications/Arduino.app/Contents/Resources/Java/hardware/tools/g++_arm_none_eabi/bin/../lib/gcc/arm-none-eabi/4.4.1/thumb2/libgcc.a(_arm_muldivdf3.o)
                                                  Builds/embeddedcomputing.a(Print.o)
__aeabi_drsub                                     /Applications/Arduino.app/Contents/Resources/Java/hardware/tools/g++_arm_none_eabi/bin/../lib/gcc/arm-none-eabi/4.4.1/thumb2/libgcc.a(_arm_addsubdf3.o)
__aeabi_dsub                                      /Applications/Arduino.app/Contents/Resources/Java/hardware/tools/g++_arm_none_eabi/bin/../lib/gcc/arm-none-eabi/4.4.1/thumb2/libgcc.a(_arm_addsubdf3.o)
                                                  Builds/embeddedcomputing.a(Print.o)
__aeabi_f2d                                       /Applications/Arduino.app/Contents/Resources/Java/hardware/tools/g++_arm_none_eabi/bin/../lib/gcc/arm-none-eabi/4.4.1/thumb2/libgcc.a(_arm_addsubdf3.o)
__aeabi_i2d                                       /Applications/Arduino.app/Contents/Resources/Java/hardware/tools/g++_arm_none_eabi/bin/../lib/gcc/arm-none-eabi/4.4.1/thumb2/libgcc.a(_arm_addsubdf3.o)
                                                  Builds/embeddedcomputing.a(Print.o)
__aeabi_idiv0                                     /Applications/Arduino.app/Contents/Resources/Java/hardware/tools/g++_arm_none_eabi/bin/../lib/gcc/arm-none-eabi/4.4.1/thumb2/libgcc.a(_dvmd_tls.o)
                                                  /Applications/Arduino.app/Contents/Resources/Java/hardware/tools/g++_arm_none_eabi/bin/../lib/gcc/arm-none-eabi/4.4.1/thumb2/libgcc.a(_udivsi3.o)
__aeabi_l2d                                       /Applications/Arduino.app/Contents/Resources/Java/hardware/tools/g++_arm_none_eabi/bin/../lib/gcc/arm-none-eabi/4.4.1/thumb2/libgcc.a(_arm_addsubdf3.o)
__aeabi_ldiv0                                     /Applications/Arduino.app/Contents/Resources/Java/hardware/tools/g++_arm_none_eabi/bin/../lib/gcc/arm-none-eabi/4.4.1/thumb2/libgcc.a(_dvmd_tls.o)
__aeabi_ui2d                                      /Applications/Arduino.app/Contents/Resources/Java/hardware/tools/g++_arm_none_eabi/bin/../lib/gcc/arm-none-eabi/4.4.1/thumb2/libgcc.a(_arm_addsubdf3.o)
                                                  Builds/embeddedcomputing.a(Print.o)
__aeabi_uidiv                                     /Applications/Arduino.app/Contents/Resources/Java/hardware/tools/g++_arm_none_eabi/bin/../lib/gcc/arm-none-eabi/4.4.1/thumb2/libgcc.a(_udivsi3.o)
                                                  /Applications/Arduino.app/Contents/Resources/Java/hardware/tools/g++_arm_none_eabi/bin/../lib/gcc/arm-none-eabi/4.4.1/../../../../arm-none-eabi/lib/thumb2/libc.a(lib_a-vfiprintf.o)
__aeabi_uidivmod                                  /Applications/Arduino.app/Contents/Resources/Java/hardware/tools/g++_arm_none_eabi/bin/../lib/gcc/arm-none-eabi/4.4.1/thumb2/libgcc.a(_udivsi3.o)
                                                  /Applications/Arduino.app/Contents/Resources/Java/hardware/tools/g++_arm_none_eabi/bin/../lib/gcc/arm-none-eabi/4.4.1/../../../../arm-none-eabi/lib/thumb2/libc.a(lib_a-vfiprintf.o)
__aeabi_ul2d                                      /Applications/Arduino.app/Contents/Resources/Java/hardware/tools/g++_arm_none_eabi/bin/../lib/gcc/arm-none-eabi/4.4.1/thumb2/libgcc.a(_arm_addsubdf3.o)
__assert                                          /Applications/Arduino.app/Contents/Resources/Java/hardware/tools/g++_arm_none_eabi/bin/../lib/gcc/arm-none-eabi/4.4.1/../../../../arm-none-eabi/lib/thumb2/libc.a(lib_a-assert.o)
__assert_func                                     /Applications/Arduino.app/Contents/Resources/Java/hardware/tools/g++_arm_none_eabi/bin/../lib/gcc/arm-none-eabi/4.4.1/../../../../arm-none-eabi/lib/thumb2/libc.a(lib_a-assert.o)
                                                  /Applications/Arduino.app/Contents/Resources/Java/hardware/arduino/sam/variants/arduino_due_x/libsam_sam3x8e_gcc_rel.a(tc.o)
                                                  /Applications/Arduino.app/Contents/Resources/Java/hardware/arduino/sam/variants/arduino_due_x/libsam_sam3x8e_gcc_rel.a(pwmc.o)
__cmpdf2                                          /Applications/Arduino.app/Contents/Resources/Java/hardware/tools/g++_arm_none_eabi/bin/../lib/gcc/arm-none-eabi/4.4.1/thumb2/libgcc.a(_arm_cmpdf2.o)
__cxa_pure_virtual                                Builds/embeddedcomputing.a(cxxabi-compat.o)
                                                  Builds/embeddedcomputing.a(CDC.o)
                                                  Builds/embeddedcomputing.a(Print.o)
                                                  Builds/embeddedcomputing.a(USARTClass.o)
                                                  Builds/embeddedcomputing.a(UARTClass.o)
__divdf3                                          /Applications/Arduino.app/Contents/Resources/Java/hardware/tools/g++_arm_none_eabi/bin/../lib/gcc/arm-none-eabi/4.4.1/thumb2/libgcc.a(_arm_muldivdf3.o)
__dso_handle                                      /Applications/Arduino.app/Contents/Resources/Java/hardware/tools/g++_arm_none_eabi/bin/../lib/gcc/arm-none-eabi/4.4.1/thumb2/crtbegin.o
__eqdf2                                           /Applications/Arduino.app/Contents/Resources/Java/hardware/tools/g++_arm_none_eabi/bin/../lib/gcc/arm-none-eabi/4.4.1/thumb2/libgcc.a(_arm_cmpdf2.o)
__extendsfdf2                                     /Applications/Arduino.app/Contents/Resources/Java/hardware/tools/g++_arm_none_eabi/bin/../lib/gcc/arm-none-eabi/4.4.1/thumb2/libgcc.a(_arm_addsubdf3.o)
__fixdfsi                                         /Applications/Arduino.app/Contents/Resources/Java/hardware/tools/g++_arm_none_eabi/bin/../lib/gcc/arm-none-eabi/4.4.1/thumb2/libgcc.a(_arm_fixdfsi.o)
__fixunsdfsi                                      /Applications/Arduino.app/Contents/Resources/Java/hardware/tools/g++_arm_none_eabi/bin/../lib/gcc/arm-none-eabi/4.4.1/thumb2/libgcc.a(_arm_fixunsdfsi.o)
__floatdidf                                       /Applications/Arduino.app/Contents/Resources/Java/hardware/tools/g++_arm_none_eabi/bin/../lib/gcc/arm-none-eabi/4.4.1/thumb2/libgcc.a(_arm_addsubdf3.o)
__floatsidf                                       /Applications/Arduino.app/Contents/Resources/Java/hardware/tools/g++_arm_none_eabi/bin/../lib/gcc/arm-none-eabi/4.4.1/thumb2/libgcc.a(_arm_addsubdf3.o)
__floatundidf                                     /Applications/Arduino.app/Contents/Resources/Java/hardware/tools/g++_arm_none_eabi/bin/../lib/gcc/arm-none-eabi/4.4.1/thumb2/libgcc.a(_arm_addsubdf3.o)
__floatunsidf                                     /Applications/Arduino.app/Contents/Resources/Java/hardware/tools/g++_arm_none_eabi/bin/../lib/gcc/arm-none-eabi/4.4.1/thumb2/libgcc.a(_arm_addsubdf3.o)
__fp_lock_all                                     /Applications/Arduino.app/Contents/Resources/Java/hardware/tools/g++_arm_none_eabi/bin/../lib/gcc/arm-none-eabi/4.4.1/../../../../arm-none-eabi/lib/thumb2/libc.a(lib_a-findfp.o)
__fp_unlock_all                                   /Applications/Arduino.app/Contents/Resources/Java/hardware/tools/g++_arm_none_eabi/bin/../lib/gcc/arm-none-eabi/4.4.1/../../../../arm-none-eabi/lib/thumb2/libc.a(lib_a-findfp.o)
__gedf2                                           /Applications/Arduino.app/Contents/Resources/Java/hardware/tools/g++_arm_none_eabi/bin/../lib/gcc/arm-none-eabi/4.4.1/thumb2/libgcc.a(_arm_cmpdf2.o)
__gtdf2                                           /Applications/Arduino.app/Contents/Resources/Java/hardware/tools/g++_arm_none_eabi/bin/../lib/gcc/arm-none-eabi/4.4.1/thumb2/libgcc.a(_arm_cmpdf2.o)
__init_array_end                                  /Applications/Arduino.app/Contents/Resources/Java/hardware/tools/g++_arm_none_eabi/bin/../lib/gcc/arm-none-eabi/4.4.1/../../../../arm-none-eabi/lib/thumb2/libc.a(lib_a-init.o)
__init_array_start                                /Applications/Arduino.app/Contents/Resources/Java/hardware/tools/g++_arm_none_eabi/bin/../lib/gcc/arm-none-eabi/4.4.1/../../../../arm-none-eabi/lib/thumb2/libc.a(lib_a-init.o)
__isinfd                                          /Applications/Arduino.app/Contents/Resources/Java/hardware/tools/g++_arm_none_eabi/bin/../lib/gcc/arm-none-eabi/4.4.1/../../../../arm-none-eabi/lib/thumb2/libm.a(lib_a-s_isinfd.o)
                                                  Builds/embeddedcomputing.a(Print.o)
__isnand                                          /Applications/Arduino.app/Contents/Resources/Java/hardware/tools/g++_arm_none_eabi/bin/../lib/gcc/arm-none-eabi/4.4.1/../../../../arm-none-eabi/lib/thumb2/libm.a(lib_a-s_isnand.o)
                                                  Builds/embeddedcomputing.a(Print.o)
__ledf2                                           /Applications/Arduino.app/Contents/Resources/Java/hardware/tools/g++_arm_none_eabi/bin/../lib/gcc/arm-none-eabi/4.4.1/thumb2/libgcc.a(_arm_cmpdf2.o)
__libc_init_array                                 /Applications/Arduino.app/Contents/Resources/Java/hardware/tools/g++_arm_none_eabi/bin/../lib/gcc/arm-none-eabi/4.4.1/../../../../arm-none-eabi/lib/thumb2/libc.a(lib_a-init.o)
                                                  Builds/variant.o
__ltdf2                                           /Applications/Arduino.app/Contents/Resources/Java/hardware/tools/g++_arm_none_eabi/bin/../lib/gcc/arm-none-eabi/4.4.1/thumb2/libgcc.a(_arm_cmpdf2.o)
__malloc_av_                                      /Applications/Arduino.app/Contents/Resources/Java/hardware/tools/g++_arm_none_eabi/bin/../lib/gcc/arm-none-eabi/4.4.1/../../../../arm-none-eabi/lib/thumb2/libc.a(lib_a-mallocr.o)
                                                  /Applications/Arduino.app/Contents/Resources/Java/hardware/tools/g++_arm_none_eabi/bin/../lib/gcc/arm-none-eabi/4.4.1/../../../../arm-none-eabi/lib/thumb2/libc.a(lib_a-reallocr.o)
                                                  /Applications/Arduino.app/Contents/Resources/Java/hardware/tools/g++_arm_none_eabi/bin/../lib/gcc/arm-none-eabi/4.4.1/../../../../arm-none-eabi/lib/thumb2/libc.a(lib_a-freer.o)
__malloc_current_mallinfo                         /Applications/Arduino.app/Contents/Resources/Java/hardware/tools/g++_arm_none_eabi/bin/../lib/gcc/arm-none-eabi/4.4.1/../../../../arm-none-eabi/lib/thumb2/libc.a(lib_a-mallocr.o)
                                                  /Applications/Arduino.app/Contents/Resources/Java/hardware/tools/g++_arm_none_eabi/bin/../lib/gcc/arm-none-eabi/4.4.1/../../../../arm-none-eabi/lib/thumb2/libc.a(lib_a-freer.o)
__malloc_lock                                     /Applications/Arduino.app/Contents/Resources/Java/hardware/tools/g++_arm_none_eabi/bin/../lib/gcc/arm-none-eabi/4.4.1/../../../../arm-none-eabi/lib/thumb2/libc.a(lib_a-mlock.o)
                                                  /Applications/Arduino.app/Contents/Resources/Java/hardware/tools/g++_arm_none_eabi/bin/../lib/gcc/arm-none-eabi/4.4.1/../../../../arm-none-eabi/lib/thumb2/libc.a(lib_a-reallocr.o)
                                                  /Applications/Arduino.app/Contents/Resources/Java/hardware/tools/g++_arm_none_eabi/bin/../lib/gcc/arm-none-eabi/4.4.1/../../../../arm-none-eabi/lib/thumb2/libc.a(lib_a-mallocr.o)
                                                  /Applications/Arduino.app/Contents/Resources/Java/hardware/tools/g++_arm_none_eabi/bin/../lib/gcc/arm-none-eabi/4.4.1/../../../../arm-none-eabi/lib/thumb2/libc.a(lib_a-freer.o)
__malloc_max_sbrked_mem                           /Applications/Arduino.app/Contents/Resources/Java/hardware/tools/g++_arm_none_eabi/bin/../lib/gcc/arm-none-eabi/4.4.1/../../../../arm-none-eabi/lib/thumb2/libc.a(lib_a-mallocr.o)
__malloc_max_total_mem                            /Applications/Arduino.app/Contents/Resources/Java/hardware/tools/g++_arm_none_eabi/bin/../lib/gcc/arm-none-eabi/4.4.1/../../../../arm-none-eabi/lib/thumb2/libc.a(lib_a-mallocr.o)
__malloc_sbrk_base                                /Applications/Arduino.app/Contents/Resources/Java/hardware/tools/g++_arm_none_eabi/bin/../lib/gcc/arm-none-eabi/4.4.1/../../../../arm-none-eabi/lib/thumb2/libc.a(lib_a-mallocr.o)
                                                  /Applications/Arduino.app/Contents/Resources/Java/hardware/tools/g++_arm_none_eabi/bin/../lib/gcc/arm-none-eabi/4.4.1/../../../../arm-none-eabi/lib/thumb2/libc.a(lib_a-freer.o)
__malloc_top_pad                                  /Applications/Arduino.app/Contents/Resources/Java/hardware/tools/g++_arm_none_eabi/bin/../lib/gcc/arm-none-eabi/4.4.1/../../../../arm-none-eabi/lib/thumb2/libc.a(lib_a-mallocr.o)
                                                  /Applications/Arduino.app/Contents/Resources/Java/hardware/tools/g++_arm_none_eabi/bin/../lib/gcc/arm-none-eabi/4.4.1/../../../../arm-none-eabi/lib/thumb2/libc.a(lib_a-freer.o)
__malloc_trim_threshold                           /Applications/Arduino.app/Contents/Resources/Java/hardware/tools/g++_arm_none_eabi/bin/../lib/gcc/arm-none-eabi/4.4.1/../../../../arm-none-eabi/lib/thumb2/libc.a(lib_a-mallocr.o)
                                                  /Applications/Arduino.app/Contents/Resources/Java/hardware/tools/g++_arm_none_eabi/bin/../lib/gcc/arm-none-eabi/4.4.1/../../../../arm-none-eabi/lib/thumb2/libc.a(lib_a-freer.o)
__malloc_unlock                                   /Applications/Arduino.app/Contents/Resources/Java/hardware/tools/g++_arm_none_eabi/bin/../lib/gcc/arm-none-eabi/4.4.1/../../../../arm-none-eabi/lib/thumb2/libc.a(lib_a-mlock.o)
                                                  /Applications/Arduino.app/Contents/Resources/Java/hardware/tools/g++_arm_none_eabi/bin/../lib/gcc/arm-none-eabi/4.4.1/../../../../arm-none-eabi/lib/thumb2/libc.a(lib_a-reallocr.o)
                                                  /Applications/Arduino.app/Contents/Resources/Java/hardware/tools/g++_arm_none_eabi/bin/../lib/gcc/arm-none-eabi/4.4.1/../../../../arm-none-eabi/lib/thumb2/libc.a(lib_a-mallocr.o)
                                                  /Applications/Arduino.app/Contents/Resources/Java/hardware/tools/g++_arm_none_eabi/bin/../lib/gcc/arm-none-eabi/4.4.1/../../../../arm-none-eabi/lib/thumb2/libc.a(lib_a-freer.o)
__muldf3                                          /Applications/Arduino.app/Contents/Resources/Java/hardware/tools/g++_arm_none_eabi/bin/../lib/gcc/arm-none-eabi/4.4.1/thumb2/libgcc.a(_arm_muldivdf3.o)
__nedf2                                           /Applications/Arduino.app/Contents/Resources/Java/hardware/tools/g++_arm_none_eabi/bin/../lib/gcc/arm-none-eabi/4.4.1/thumb2/libgcc.a(_arm_cmpdf2.o)
__preinit_array_end                               /Applications/Arduino.app/Contents/Resources/Java/hardware/tools/g++_arm_none_eabi/bin/../lib/gcc/arm-none-eabi/4.4.1/../../../../arm-none-eabi/lib/thumb2/libc.a(lib_a-init.o)
__preinit_array_start                             /Applications/Arduino.app/Contents/Resources/Java/hardware/tools/g++_arm_none_eabi/bin/../lib/gcc/arm-none-eabi/4.4.1/../../../../arm-none-eabi/lib/thumb2/libc.a(lib_a-init.o)
__sclose                                          /Applications/Arduino.app/Contents/Resources/Java/hardware/tools/g++_arm_none_eabi/bin/../lib/gcc/arm-none-eabi/4.4.1/../../../../arm-none-eabi/lib/thumb2/libc.a(lib_a-stdio.o)
                                                  /Applications/Arduino.app/Contents/Resources/Java/hardware/tools/g++_arm_none_eabi/bin/../lib/gcc/arm-none-eabi/4.4.1/../../../../arm-none-eabi/lib/thumb2/libc.a(lib_a-findfp.o)
__sf_fake_stderr                                  /Applications/Arduino.app/Contents/Resources/Java/hardware/tools/g++_arm_none_eabi/bin/../lib/gcc/arm-none-eabi/4.4.1/../../../../arm-none-eabi/lib/thumb2/libc.a(lib_a-findfp.o)
                                                  /Applications/Arduino.app/Contents/Resources/Java/hardware/tools/g++_arm_none_eabi/bin/../lib/gcc/arm-none-eabi/4.4.1/../../../../arm-none-eabi/lib/thumb2/libc.a(lib_a-fclose.o)
                                                  /Applications/Arduino.app/Contents/Resources/Java/hardware/tools/g++_arm_none_eabi/bin/../lib/gcc/arm-none-eabi/4.4.1/../../../../arm-none-eabi/lib/thumb2/libc.a(lib_a-fflush.o)
                                                  /Applications/Arduino.app/Contents/Resources/Java/hardware/tools/g++_arm_none_eabi/bin/../lib/gcc/arm-none-eabi/4.4.1/../../../../arm-none-eabi/lib/thumb2/libc.a(lib_a-wsetup.o)
                                                  /Applications/Arduino.app/Contents/Resources/Java/hardware/tools/g++_arm_none_eabi/bin/../lib/gcc/arm-none-eabi/4.4.1/../../../../arm-none-eabi/lib/thumb2/libc.a(lib_a-vfiprintf.o)
                                                  /Applications/Arduino.app/Contents/Resources/Java/hardware/tools/g++_arm_none_eabi/bin/../lib/gcc/arm-none-eabi/4.4.1/../../../../arm-none-eabi/lib/thumb2/libc.a(lib_a-impure.o)
__sf_fake_stdin                                   /Applications/Arduino.app/Contents/Resources/Java/hardware/tools/g++_arm_none_eabi/bin/../lib/gcc/arm-none-eabi/4.4.1/../../../../arm-none-eabi/lib/thumb2/libc.a(lib_a-findfp.o)
                                                  /Applications/Arduino.app/Contents/Resources/Java/hardware/tools/g++_arm_none_eabi/bin/../lib/gcc/arm-none-eabi/4.4.1/../../../../arm-none-eabi/lib/thumb2/libc.a(lib_a-fclose.o)
                                                  /Applications/Arduino.app/Contents/Resources/Java/hardware/tools/g++_arm_none_eabi/bin/../lib/gcc/arm-none-eabi/4.4.1/../../../../arm-none-eabi/lib/thumb2/libc.a(lib_a-fflush.o)
                                                  /Applications/Arduino.app/Contents/Resources/Java/hardware/tools/g++_arm_none_eabi/bin/../lib/gcc/arm-none-eabi/4.4.1/../../../../arm-none-eabi/lib/thumb2/libc.a(lib_a-wsetup.o)
                                                  /Applications/Arduino.app/Contents/Resources/Java/hardware/tools/g++_arm_none_eabi/bin/../lib/gcc/arm-none-eabi/4.4.1/../../../../arm-none-eabi/lib/thumb2/libc.a(lib_a-vfiprintf.o)
                                                  /Applications/Arduino.app/Contents/Resources/Java/hardware/tools/g++_arm_none_eabi/bin/../lib/gcc/arm-none-eabi/4.4.1/../../../../arm-none-eabi/lib/thumb2/libc.a(lib_a-impure.o)
__sf_fake_stdout                                  /Applications/Arduino.app/Contents/Resources/Java/hardware/tools/g++_arm_none_eabi/bin/../lib/gcc/arm-none-eabi/4.4.1/../../../../arm-none-eabi/lib/thumb2/libc.a(lib_a-findfp.o)
                                                  /Applications/Arduino.app/Contents/Resources/Java/hardware/tools/g++_arm_none_eabi/bin/../lib/gcc/arm-none-eabi/4.4.1/../../../../arm-none-eabi/lib/thumb2/libc.a(lib_a-fclose.o)
                                                  /Applications/Arduino.app/Contents/Resources/Java/hardware/tools/g++_arm_none_eabi/bin/../lib/gcc/arm-none-eabi/4.4.1/../../../../arm-none-eabi/lib/thumb2/libc.a(lib_a-fflush.o)
                                                  /Applications/Arduino.app/Contents/Resources/Java/hardware/tools/g++_arm_none_eabi/bin/../lib/gcc/arm-none-eabi/4.4.1/../../../../arm-none-eabi/lib/thumb2/libc.a(lib_a-wsetup.o)
                                                  /Applications/Arduino.app/Contents/Resources/Java/hardware/tools/g++_arm_none_eabi/bin/../lib/gcc/arm-none-eabi/4.4.1/../../../../arm-none-eabi/lib/thumb2/libc.a(lib_a-vfiprintf.o)
                                                  /Applications/Arduino.app/Contents/Resources/Java/hardware/tools/g++_arm_none_eabi/bin/../lib/gcc/arm-none-eabi/4.4.1/../../../../arm-none-eabi/lib/thumb2/libc.a(lib_a-impure.o)
__sfmoreglue                                      /Applications/Arduino.app/Contents/Resources/Java/hardware/tools/g++_arm_none_eabi/bin/../lib/gcc/arm-none-eabi/4.4.1/../../../../arm-none-eabi/lib/thumb2/libc.a(lib_a-findfp.o)
__sfp                                             /Applications/Arduino.app/Contents/Resources/Java/hardware/tools/g++_arm_none_eabi/bin/../lib/gcc/arm-none-eabi/4.4.1/../../../../arm-none-eabi/lib/thumb2/libc.a(lib_a-findfp.o)
__sfp_lock_acquire                                /Applications/Arduino.app/Contents/Resources/Java/hardware/tools/g++_arm_none_eabi/bin/../lib/gcc/arm-none-eabi/4.4.1/../../../../arm-none-eabi/lib/thumb2/libc.a(lib_a-findfp.o)
                                                  /Applications/Arduino.app/Contents/Resources/Java/hardware/tools/g++_arm_none_eabi/bin/../lib/gcc/arm-none-eabi/4.4.1/../../../../arm-none-eabi/lib/thumb2/libc.a(lib_a-fclose.o)
                                                  /Applications/Arduino.app/Contents/Resources/Java/hardware/tools/g++_arm_none_eabi/bin/../lib/gcc/arm-none-eabi/4.4.1/../../../../arm-none-eabi/lib/thumb2/libc.a(lib_a-fwalk.o)
__sfp_lock_release                                /Applications/Arduino.app/Contents/Resources/Java/hardware/tools/g++_arm_none_eabi/bin/../lib/gcc/arm-none-eabi/4.4.1/../../../../arm-none-eabi/lib/thumb2/libc.a(lib_a-findfp.o)
                                                  /Applications/Arduino.app/Contents/Resources/Java/hardware/tools/g++_arm_none_eabi/bin/../lib/gcc/arm-none-eabi/4.4.1/../../../../arm-none-eabi/lib/thumb2/libc.a(lib_a-fclose.o)
                                                  /Applications/Arduino.app/Contents/Resources/Java/hardware/tools/g++_arm_none_eabi/bin/../lib/gcc/arm-none-eabi/4.4.1/../../../../arm-none-eabi/lib/thumb2/libc.a(lib_a-fwalk.o)
__sfvwrite_r                                      /Applications/Arduino.app/Contents/Resources/Java/hardware/tools/g++_arm_none_eabi/bin/../lib/gcc/arm-none-eabi/4.4.1/../../../../arm-none-eabi/lib/thumb2/libc.a(lib_a-fvwrite.o)
                                                  /Applications/Arduino.app/Contents/Resources/Java/hardware/tools/g++_arm_none_eabi/bin/../lib/gcc/arm-none-eabi/4.4.1/../../../../arm-none-eabi/lib/thumb2/libc.a(lib_a-vfiprintf.o)
__sigtramp                                        /Applications/Arduino.app/Contents/Resources/Java/hardware/tools/g++_arm_none_eabi/bin/../lib/gcc/arm-none-eabi/4.4.1/../../../../arm-none-eabi/lib/thumb2/libc.a(lib_a-signal.o)
__sigtramp_r                                      /Applications/Arduino.app/Contents/Resources/Java/hardware/tools/g++_arm_none_eabi/bin/../lib/gcc/arm-none-eabi/4.4.1/../../../../arm-none-eabi/lib/thumb2/libc.a(lib_a-signal.o)
__sinit                                           /Applications/Arduino.app/Contents/Resources/Java/hardware/tools/g++_arm_none_eabi/bin/../lib/gcc/arm-none-eabi/4.4.1/../../../../arm-none-eabi/lib/thumb2/libc.a(lib_a-findfp.o)
                                                  /Applications/Arduino.app/Contents/Resources/Java/hardware/tools/g++_arm_none_eabi/bin/../lib/gcc/arm-none-eabi/4.4.1/../../../../arm-none-eabi/lib/thumb2/libc.a(lib_a-fclose.o)
                                                  /Applications/Arduino.app/Contents/Resources/Java/hardware/tools/g++_arm_none_eabi/bin/../lib/gcc/arm-none-eabi/4.4.1/../../../../arm-none-eabi/lib/thumb2/libc.a(lib_a-fflush.o)
                                                  /Applications/Arduino.app/Contents/Resources/Java/hardware/tools/g++_arm_none_eabi/bin/../lib/gcc/arm-none-eabi/4.4.1/../../../../arm-none-eabi/lib/thumb2/libc.a(lib_a-wsetup.o)
                                                  /Applications/Arduino.app/Contents/Resources/Java/hardware/tools/g++_arm_none_eabi/bin/../lib/gcc/arm-none-eabi/4.4.1/../../../../arm-none-eabi/lib/thumb2/libc.a(lib_a-vfiprintf.o)
                                                  /Applications/Arduino.app/Contents/Resources/Java/hardware/tools/g++_arm_none_eabi/bin/../lib/gcc/arm-none-eabi/4.4.1/../../../../arm-none-eabi/lib/thumb2/libc.a(lib_a-iprintf.o)
__sinit_lock_acquire                              /Applications/Arduino.app/Contents/Resources/Java/hardware/tools/g++_arm_none_eabi/bin/../lib/gcc/arm-none-eabi/4.4.1/../../../../arm-none-eabi/lib/thumb2/libc.a(lib_a-findfp.o)
__sinit_lock_release                              /Applications/Arduino.app/Contents/Resources/Java/hardware/tools/g++_arm_none_eabi/bin/../lib/gcc/arm-none-eabi/4.4.1/../../../../arm-none-eabi/lib/thumb2/libc.a(lib_a-findfp.o)
__smakebuf_r                                      /Applications/Arduino.app/Contents/Resources/Java/hardware/tools/g++_arm_none_eabi/bin/../lib/gcc/arm-none-eabi/4.4.1/../../../../arm-none-eabi/lib/thumb2/libc.a(lib_a-makebuf.o)
                                                  /Applications/Arduino.app/Contents/Resources/Java/hardware/tools/g++_arm_none_eabi/bin/../lib/gcc/arm-none-eabi/4.4.1/../../../../arm-none-eabi/lib/thumb2/libc.a(lib_a-wsetup.o)
__sread                                           /Applications/Arduino.app/Contents/Resources/Java/hardware/tools/g++_arm_none_eabi/bin/../lib/gcc/arm-none-eabi/4.4.1/../../../../arm-none-eabi/lib/thumb2/libc.a(lib_a-stdio.o)
                                                  /Applications/Arduino.app/Contents/Resources/Java/hardware/tools/g++_arm_none_eabi/bin/../lib/gcc/arm-none-eabi/4.4.1/../../../../arm-none-eabi/lib/thumb2/libc.a(lib_a-findfp.o)
__sseek                                           /Applications/Arduino.app/Contents/Resources/Java/hardware/tools/g++_arm_none_eabi/bin/../lib/gcc/arm-none-eabi/4.4.1/../../../../arm-none-eabi/lib/thumb2/libc.a(lib_a-stdio.o)
                                                  /Applications/Arduino.app/Contents/Resources/Java/hardware/tools/g++_arm_none_eabi/bin/../lib/gcc/arm-none-eabi/4.4.1/../../../../arm-none-eabi/lib/thumb2/libc.a(lib_a-makebuf.o)
                                                  /Applications/Arduino.app/Contents/Resources/Java/hardware/tools/g++_arm_none_eabi/bin/../lib/gcc/arm-none-eabi/4.4.1/../../../../arm-none-eabi/lib/thumb2/libc.a(lib_a-findfp.o)
__subdf3                                          /Applications/Arduino.app/Contents/Resources/Java/hardware/tools/g++_arm_none_eabi/bin/../lib/gcc/arm-none-eabi/4.4.1/thumb2/libgcc.a(_arm_addsubdf3.o)
__swrite                                          /Applications/Arduino.app/Contents/Resources/Java/hardware/tools/g++_arm_none_eabi/bin/../lib/gcc/arm-none-eabi/4.4.1/../../../../arm-none-eabi/lib/thumb2/libc.a(lib_a-stdio.o)
                                                  /Applications/Arduino.app/Contents/Resources/Java/hardware/tools/g++_arm_none_eabi/bin/../lib/gcc/arm-none-eabi/4.4.1/../../../../arm-none-eabi/lib/thumb2/libc.a(lib_a-findfp.o)
__swsetup_r                                       /Applications/Arduino.app/Contents/Resources/Java/hardware/tools/g++_arm_none_eabi/bin/../lib/gcc/arm-none-eabi/4.4.1/../../../../arm-none-eabi/lib/thumb2/libc.a(lib_a-wsetup.o)
                                                  /Applications/Arduino.app/Contents/Resources/Java/hardware/tools/g++_arm_none_eabi/bin/../lib/gcc/arm-none-eabi/4.4.1/../../../../arm-none-eabi/lib/thumb2/libc.a(lib_a-fvwrite.o)
                                                  /Applications/Arduino.app/Contents/Resources/Java/hardware/tools/g++_arm_none_eabi/bin/../lib/gcc/arm-none-eabi/4.4.1/../../../../arm-none-eabi/lib/thumb2/libc.a(lib_a-vfiprintf.o)
__udivsi3                                         /Applications/Arduino.app/Contents/Resources/Java/hardware/tools/g++_arm_none_eabi/bin/../lib/gcc/arm-none-eabi/4.4.1/thumb2/libgcc.a(_udivsi3.o)
_asciimap                                         Builds/embeddedcomputing.a(HID.o)
_cdcComposite                                     Builds/embeddedcomputing.a(USBCore.o)
_cend                                             Builds/embeddedcomputing.a(USBCore.o)
_cleanup                                          /Applications/Arduino.app/Contents/Resources/Java/hardware/tools/g++_arm_none_eabi/bin/../lib/gcc/arm-none-eabi/4.4.1/../../../../arm-none-eabi/lib/thumb2/libc.a(lib_a-findfp.o)
_cleanup_r                                        /Applications/Arduino.app/Contents/Resources/Java/hardware/tools/g++_arm_none_eabi/bin/../lib/gcc/arm-none-eabi/4.4.1/../../../../arm-none-eabi/lib/thumb2/libc.a(lib_a-findfp.o)
                                                  /Applications/Arduino.app/Contents/Resources/Java/hardware/tools/g++_arm_none_eabi/bin/../lib/gcc/arm-none-eabi/4.4.1/../../../../arm-none-eabi/lib/thumb2/libc.a(lib_a-makebuf.o)
_close                                            Builds/syscalls_sam3.o
                                                  /Applications/Arduino.app/Contents/Resources/Java/hardware/tools/g++_arm_none_eabi/bin/../lib/gcc/arm-none-eabi/4.4.1/../../../../arm-none-eabi/lib/thumb2/libc.a(lib_a-closer.o)
_close_r                                          /Applications/Arduino.app/Contents/Resources/Java/hardware/tools/g++_arm_none_eabi/bin/../lib/gcc/arm-none-eabi/4.4.1/../../../../arm-none-eabi/lib/thumb2/libc.a(lib_a-closer.o)
                                                  /Applications/Arduino.app/Contents/Resources/Java/hardware/tools/g++_arm_none_eabi/bin/../lib/gcc/arm-none-eabi/4.4.1/../../../../arm-none-eabi/lib/thumb2/libc.a(lib_a-stdio.o)
_cmark                                            Builds/embeddedcomputing.a(USBCore.o)
_end                                              Builds/syscalls_sam3.o
_erelocate                                        /Applications/Arduino.app/Contents/Resources/Java/hardware/arduino/sam/variants/arduino_due_x/libsam_sam3x8e_gcc_rel.a(startup_sam3xa.o)
_estack                                           /Applications/Arduino.app/Contents/Resources/Java/hardware/arduino/sam/variants/arduino_due_x/libsam_sam3x8e_gcc_rel.a(startup_sam3xa.o)
_etext                                            /Applications/Arduino.app/Contents/Resources/Java/hardware/arduino/sam/variants/arduino_due_x/libsam_sam3x8e_gcc_rel.a(startup_sam3xa.o)
_exit                                             Builds/syscalls_sam3.o
                                                  /Applications/Arduino.app/Contents/Resources/Java/hardware/tools/g++_arm_none_eabi/bin/../lib/gcc/arm-none-eabi/4.4.1/../../../../arm-none-eabi/lib/thumb2/libc.a(lib_a-abort.o)
_ezero                                            /Applications/Arduino.app/Contents/Resources/Java/hardware/arduino/sam/variants/arduino_due_x/libsam_sam3x8e_gcc_rel.a(startup_sam3xa.o)
_fclose_r                                         /Applications/Arduino.app/Contents/Resources/Java/hardware/tools/g++_arm_none_eabi/bin/../lib/gcc/arm-none-eabi/4.4.1/../../../../arm-none-eabi/lib/thumb2/libc.a(lib_a-fclose.o)
_fflush_r                                         /Applications/Arduino.app/Contents/Resources/Java/hardware/tools/g++_arm_none_eabi/bin/../lib/gcc/arm-none-eabi/4.4.1/../../../../arm-none-eabi/lib/thumb2/libc.a(lib_a-fflush.o)
                                                  /Applications/Arduino.app/Contents/Resources/Java/hardware/tools/g++_arm_none_eabi/bin/../lib/gcc/arm-none-eabi/4.4.1/../../../../arm-none-eabi/lib/thumb2/libc.a(lib_a-fclose.o)
                                                  /Applications/Arduino.app/Contents/Resources/Java/hardware/tools/g++_arm_none_eabi/bin/../lib/gcc/arm-none-eabi/4.4.1/../../../../arm-none-eabi/lib/thumb2/libc.a(lib_a-fvwrite.o)
                                                  /Applications/Arduino.app/Contents/Resources/Java/hardware/tools/g++_arm_none_eabi/bin/../lib/gcc/arm-none-eabi/4.4.1/../../../../arm-none-eabi/lib/thumb2/libc.a(lib_a-vfiprintf.o)
_fini                                             /Applications/Arduino.app/Contents/Resources/Java/hardware/tools/g++_arm_none_eabi/bin/../lib/gcc/arm-none-eabi/4.4.1/thumb2/crti.o
_fiprintf_r                                       /Applications/Arduino.app/Contents/Resources/Java/hardware/tools/g++_arm_none_eabi/bin/../lib/gcc/arm-none-eabi/4.4.1/../../../../arm-none-eabi/lib/thumb2/libc.a(lib_a-fiprintf.o)
_free_r                                           /Applications/Arduino.app/Contents/Resources/Java/hardware/tools/g++_arm_none_eabi/bin/../lib/gcc/arm-none-eabi/4.4.1/../../../../arm-none-eabi/lib/thumb2/libc.a(lib_a-freer.o)
                                                  /Applications/Arduino.app/Contents/Resources/Java/hardware/tools/g++_arm_none_eabi/bin/../lib/gcc/arm-none-eabi/4.4.1/../../../../arm-none-eabi/lib/thumb2/libc.a(lib_a-reent.o)
                                                  /Applications/Arduino.app/Contents/Resources/Java/hardware/tools/g++_arm_none_eabi/bin/../lib/gcc/arm-none-eabi/4.4.1/../../../../arm-none-eabi/lib/thumb2/libc.a(lib_a-fclose.o)
                                                  /Applications/Arduino.app/Contents/Resources/Java/hardware/tools/g++_arm_none_eabi/bin/../lib/gcc/arm-none-eabi/4.4.1/../../../../arm-none-eabi/lib/thumb2/libc.a(lib_a-reallocr.o)
                                                  /Applications/Arduino.app/Contents/Resources/Java/hardware/tools/g++_arm_none_eabi/bin/../lib/gcc/arm-none-eabi/4.4.1/../../../../arm-none-eabi/lib/thumb2/libc.a(lib_a-mallocr.o)
                                                  /Applications/Arduino.app/Contents/Resources/Java/hardware/tools/g++_arm_none_eabi/bin/../lib/gcc/arm-none-eabi/4.4.1/../../../../arm-none-eabi/lib/thumb2/libc.a(lib_a-fvwrite.o)
                                                  /Applications/Arduino.app/Contents/Resources/Java/hardware/tools/g++_arm_none_eabi/bin/../lib/gcc/arm-none-eabi/4.4.1/../../../../arm-none-eabi/lib/thumb2/libc.a(lib_a-fflush.o)
                                                  /Applications/Arduino.app/Contents/Resources/Java/hardware/tools/g++_arm_none_eabi/bin/../lib/gcc/arm-none-eabi/4.4.1/../../../../arm-none-eabi/lib/thumb2/libc.a(lib_a-wsetup.o)
_fstat                                            Builds/syscalls_sam3.o
                                                  /Applications/Arduino.app/Contents/Resources/Java/hardware/tools/g++_arm_none_eabi/bin/../lib/gcc/arm-none-eabi/4.4.1/../../../../arm-none-eabi/lib/thumb2/libc.a(lib_a-fstatr.o)
_fstat_r                                          /Applications/Arduino.app/Contents/Resources/Java/hardware/tools/g++_arm_none_eabi/bin/../lib/gcc/arm-none-eabi/4.4.1/../../../../arm-none-eabi/lib/thumb2/libc.a(lib_a-fstatr.o)
                                                  /Applications/Arduino.app/Contents/Resources/Java/hardware/tools/g++_arm_none_eabi/bin/../lib/gcc/arm-none-eabi/4.4.1/../../../../arm-none-eabi/lib/thumb2/libc.a(lib_a-makebuf.o)
_fwalk                                            /Applications/Arduino.app/Contents/Resources/Java/hardware/tools/g++_arm_none_eabi/bin/../lib/gcc/arm-none-eabi/4.4.1/../../../../arm-none-eabi/lib/thumb2/libc.a(lib_a-fwalk.o)
                                                  /Applications/Arduino.app/Contents/Resources/Java/hardware/tools/g++_arm_none_eabi/bin/../lib/gcc/arm-none-eabi/4.4.1/../../../../arm-none-eabi/lib/thumb2/libc.a(lib_a-findfp.o)
_fwalk_reent                                      /Applications/Arduino.app/Contents/Resources/Java/hardware/tools/g++_arm_none_eabi/bin/../lib/gcc/arm-none-eabi/4.4.1/../../../../arm-none-eabi/lib/thumb2/libc.a(lib_a-fwalk.o)
                                                  /Applications/Arduino.app/Contents/Resources/Java/hardware/tools/g++_arm_none_eabi/bin/../lib/gcc/arm-none-eabi/4.4.1/../../../../arm-none-eabi/lib/thumb2/libc.a(lib_a-fflush.o)
_getpid                                           Builds/syscalls_sam3.o
                                                  /Applications/Arduino.app/Contents/Resources/Java/hardware/tools/g++_arm_none_eabi/bin/../lib/gcc/arm-none-eabi/4.4.1/../../../../arm-none-eabi/lib/thumb2/libc.a(lib_a-signalr.o)
_getpid_r                                         /Applications/Arduino.app/Contents/Resources/Java/hardware/tools/g++_arm_none_eabi/bin/../lib/gcc/arm-none-eabi/4.4.1/../../../../arm-none-eabi/lib/thumb2/libc.a(lib_a-signalr.o)
                                                  /Applications/Arduino.app/Contents/Resources/Java/hardware/tools/g++_arm_none_eabi/bin/../lib/gcc/arm-none-eabi/4.4.1/../../../../arm-none-eabi/lib/thumb2/libc.a(lib_a-signal.o)
_global_impure_ptr                                /Applications/Arduino.app/Contents/Resources/Java/hardware/tools/g++_arm_none_eabi/bin/../lib/gcc/arm-none-eabi/4.4.1/../../../../arm-none-eabi/lib/thumb2/libc.a(lib_a-impure.o)
                                                  /Applications/Arduino.app/Contents/Resources/Java/hardware/tools/g++_arm_none_eabi/bin/../lib/gcc/arm-none-eabi/4.4.1/../../../../arm-none-eabi/lib/thumb2/libc.a(lib_a-findfp.o)
                                                  /Applications/Arduino.app/Contents/Resources/Java/hardware/tools/g++_arm_none_eabi/bin/../lib/gcc/arm-none-eabi/4.4.1/../../../../arm-none-eabi/lib/thumb2/libc.a(lib_a-fflush.o)
_hidInterface                                     Builds/embeddedcomputing.a(HID.o)
_hidReportDescriptor                              Builds/embeddedcomputing.a(HID.o)
_hid_idle                                         Builds/embeddedcomputing.a(HID.o)
_hid_protocol                                     Builds/embeddedcomputing.a(HID.o)
_impure_ptr                                       /Applications/Arduino.app/Contents/Resources/Java/hardware/tools/g++_arm_none_eabi/bin/../lib/gcc/arm-none-eabi/4.4.1/../../../../arm-none-eabi/lib/thumb2/libc.a(lib_a-impure.o)
                                                  /Applications/Arduino.app/Contents/Resources/Java/hardware/tools/g++_arm_none_eabi/bin/../lib/gcc/arm-none-eabi/4.4.1/../../../../arm-none-eabi/lib/thumb2/libc.a(lib_a-reent.o)
                                                  /Applications/Arduino.app/Contents/Resources/Java/hardware/tools/g++_arm_none_eabi/bin/../lib/gcc/arm-none-eabi/4.4.1/../../../../arm-none-eabi/lib/thumb2/libc.a(lib_a-fclose.o)
                                                  /Applications/Arduino.app/Contents/Resources/Java/hardware/tools/g++_arm_none_eabi/bin/../lib/gcc/arm-none-eabi/4.4.1/../../../../arm-none-eabi/lib/thumb2/libc.a(lib_a-signal.o)
                                                  /Applications/Arduino.app/Contents/Resources/Java/hardware/tools/g++_arm_none_eabi/bin/../lib/gcc/arm-none-eabi/4.4.1/../../../../arm-none-eabi/lib/thumb2/libc.a(lib_a-findfp.o)
                                                  /Applications/Arduino.app/Contents/Resources/Java/hardware/tools/g++_arm_none_eabi/bin/../lib/gcc/arm-none-eabi/4.4.1/../../../../arm-none-eabi/lib/thumb2/libc.a(lib_a-fflush.o)
                                                  /Applications/Arduino.app/Contents/Resources/Java/hardware/tools/g++_arm_none_eabi/bin/../lib/gcc/arm-none-eabi/4.4.1/../../../../arm-none-eabi/lib/thumb2/libc.a(lib_a-wsetup.o)
                                                  /Applications/Arduino.app/Contents/Resources/Java/hardware/tools/g++_arm_none_eabi/bin/../lib/gcc/arm-none-eabi/4.4.1/../../../../arm-none-eabi/lib/thumb2/libc.a(lib_a-vfiprintf.o)
                                                  /Applications/Arduino.app/Contents/Resources/Java/hardware/tools/g++_arm_none_eabi/bin/../lib/gcc/arm-none-eabi/4.4.1/../../../../arm-none-eabi/lib/thumb2/libc.a(lib_a-iprintf.o)
                                                  /Applications/Arduino.app/Contents/Resources/Java/hardware/tools/g++_arm_none_eabi/bin/../lib/gcc/arm-none-eabi/4.4.1/../../../../arm-none-eabi/lib/thumb2/libc.a(lib_a-fiprintf.o)
                                                  /Applications/Arduino.app/Contents/Resources/Java/hardware/tools/g++_arm_none_eabi/bin/../lib/gcc/arm-none-eabi/4.4.1/../../../../arm-none-eabi/lib/thumb2/libc.a(lib_a-assert.o)
_init                                             /Applications/Arduino.app/Contents/Resources/Java/hardware/tools/g++_arm_none_eabi/bin/../lib/gcc/arm-none-eabi/4.4.1/thumb2/crti.o
                                                  /Applications/Arduino.app/Contents/Resources/Java/hardware/tools/g++_arm_none_eabi/bin/../lib/gcc/arm-none-eabi/4.4.1/../../../../arm-none-eabi/lib/thumb2/libc.a(lib_a-init.o)
_init_signal                                      /Applications/Arduino.app/Contents/Resources/Java/hardware/tools/g++_arm_none_eabi/bin/../lib/gcc/arm-none-eabi/4.4.1/../../../../arm-none-eabi/lib/thumb2/libc.a(lib_a-signal.o)
_init_signal_r                                    /Applications/Arduino.app/Contents/Resources/Java/hardware/tools/g++_arm_none_eabi/bin/../lib/gcc/arm-none-eabi/4.4.1/../../../../arm-none-eabi/lib/thumb2/libc.a(lib_a-signal.o)
_iprintf_r                                        /Applications/Arduino.app/Contents/Resources/Java/hardware/tools/g++_arm_none_eabi/bin/../lib/gcc/arm-none-eabi/4.4.1/../../../../arm-none-eabi/lib/thumb2/libc.a(lib_a-iprintf.o)
_isatty                                           Builds/syscalls_sam3.o
                                                  /Applications/Arduino.app/Contents/Resources/Java/hardware/tools/g++_arm_none_eabi/bin/../lib/gcc/arm-none-eabi/4.4.1/../../../../arm-none-eabi/lib/thumb2/libc.a(lib_a-isattyr.o)
_isatty_r                                         /Applications/Arduino.app/Contents/Resources/Java/hardware/tools/g++_arm_none_eabi/bin/../lib/gcc/arm-none-eabi/4.4.1/../../../../arm-none-eabi/lib/thumb2/libc.a(lib_a-isattyr.o)
                                                  /Applications/Arduino.app/Contents/Resources/Java/hardware/tools/g++_arm_none_eabi/bin/../lib/gcc/arm-none-eabi/4.4.1/../../../../arm-none-eabi/lib/thumb2/libc.a(lib_a-makebuf.o)
_kill                                             Builds/syscalls_sam3.o
                                                  /Applications/Arduino.app/Contents/Resources/Java/hardware/tools/g++_arm_none_eabi/bin/../lib/gcc/arm-none-eabi/4.4.1/../../../../arm-none-eabi/lib/thumb2/libc.a(lib_a-signalr.o)
_kill_r                                           /Applications/Arduino.app/Contents/Resources/Java/hardware/tools/g++_arm_none_eabi/bin/../lib/gcc/arm-none-eabi/4.4.1/../../../../arm-none-eabi/lib/thumb2/libc.a(lib_a-signalr.o)
                                                  /Applications/Arduino.app/Contents/Resources/Java/hardware/tools/g++_arm_none_eabi/bin/../lib/gcc/arm-none-eabi/4.4.1/../../../../arm-none-eabi/lib/thumb2/libc.a(lib_a-signal.o)
_lseek                                            Builds/syscalls_sam3.o
                                                  /Applications/Arduino.app/Contents/Resources/Java/hardware/tools/g++_arm_none_eabi/bin/../lib/gcc/arm-none-eabi/4.4.1/../../../../arm-none-eabi/lib/thumb2/libc.a(lib_a-lseekr.o)
_lseek_r                                          /Applications/Arduino.app/Contents/Resources/Java/hardware/tools/g++_arm_none_eabi/bin/../lib/gcc/arm-none-eabi/4.4.1/../../../../arm-none-eabi/lib/thumb2/libc.a(lib_a-lseekr.o)
                                                  /Applications/Arduino.app/Contents/Resources/Java/hardware/tools/g++_arm_none_eabi/bin/../lib/gcc/arm-none-eabi/4.4.1/../../../../arm-none-eabi/lib/thumb2/libc.a(lib_a-stdio.o)
_malloc_r                                         /Applications/Arduino.app/Contents/Resources/Java/hardware/tools/g++_arm_none_eabi/bin/../lib/gcc/arm-none-eabi/4.4.1/../../../../arm-none-eabi/lib/thumb2/libc.a(lib_a-mallocr.o)
                                                  /Applications/Arduino.app/Contents/Resources/Java/hardware/tools/g++_arm_none_eabi/bin/../lib/gcc/arm-none-eabi/4.4.1/../../../../arm-none-eabi/lib/thumb2/libc.a(lib_a-signal.o)
                                                  /Applications/Arduino.app/Contents/Resources/Java/hardware/tools/g++_arm_none_eabi/bin/../lib/gcc/arm-none-eabi/4.4.1/../../../../arm-none-eabi/lib/thumb2/libc.a(lib_a-reallocr.o)
                                                  /Applications/Arduino.app/Contents/Resources/Java/hardware/tools/g++_arm_none_eabi/bin/../lib/gcc/arm-none-eabi/4.4.1/../../../../arm-none-eabi/lib/thumb2/libc.a(lib_a-makebuf.o)
                                                  /Applications/Arduino.app/Contents/Resources/Java/hardware/tools/g++_arm_none_eabi/bin/../lib/gcc/arm-none-eabi/4.4.1/../../../../arm-none-eabi/lib/thumb2/libc.a(lib_a-fvwrite.o)
                                                  /Applications/Arduino.app/Contents/Resources/Java/hardware/tools/g++_arm_none_eabi/bin/../lib/gcc/arm-none-eabi/4.4.1/../../../../arm-none-eabi/lib/thumb2/libc.a(lib_a-findfp.o)
_malloc_trim_r                                    /Applications/Arduino.app/Contents/Resources/Java/hardware/tools/g++_arm_none_eabi/bin/../lib/gcc/arm-none-eabi/4.4.1/../../../../arm-none-eabi/lib/thumb2/libc.a(lib_a-freer.o)
_raise_r                                          /Applications/Arduino.app/Contents/Resources/Java/hardware/tools/g++_arm_none_eabi/bin/../lib/gcc/arm-none-eabi/4.4.1/../../../../arm-none-eabi/lib/thumb2/libc.a(lib_a-signal.o)
_read                                             Builds/syscalls_sam3.o
                                                  /Applications/Arduino.app/Contents/Resources/Java/hardware/tools/g++_arm_none_eabi/bin/../lib/gcc/arm-none-eabi/4.4.1/../../../../arm-none-eabi/lib/thumb2/libc.a(lib_a-readr.o)
_read_r                                           /Applications/Arduino.app/Contents/Resources/Java/hardware/tools/g++_arm_none_eabi/bin/../lib/gcc/arm-none-eabi/4.4.1/../../../../arm-none-eabi/lib/thumb2/libc.a(lib_a-readr.o)
                                                  /Applications/Arduino.app/Contents/Resources/Java/hardware/tools/g++_arm_none_eabi/bin/../lib/gcc/arm-none-eabi/4.4.1/../../../../arm-none-eabi/lib/thumb2/libc.a(lib_a-stdio.o)
_realloc_r                                        /Applications/Arduino.app/Contents/Resources/Java/hardware/tools/g++_arm_none_eabi/bin/../lib/gcc/arm-none-eabi/4.4.1/../../../../arm-none-eabi/lib/thumb2/libc.a(lib_a-reallocr.o)
                                                  /Applications/Arduino.app/Contents/Resources/Java/hardware/tools/g++_arm_none_eabi/bin/../lib/gcc/arm-none-eabi/4.4.1/../../../../arm-none-eabi/lib/thumb2/libc.a(lib_a-fvwrite.o)
_reclaim_reent                                    /Applications/Arduino.app/Contents/Resources/Java/hardware/tools/g++_arm_none_eabi/bin/../lib/gcc/arm-none-eabi/4.4.1/../../../../arm-none-eabi/lib/thumb2/libc.a(lib_a-reent.o)
_sbrk                                             Builds/syscalls_sam3.o
                                                  /Applications/Arduino.app/Contents/Resources/Java/hardware/tools/g++_arm_none_eabi/bin/../lib/gcc/arm-none-eabi/4.4.1/../../../../arm-none-eabi/lib/thumb2/libc.a(lib_a-sbrkr.o)
_sbrk_r                                           /Applications/Arduino.app/Contents/Resources/Java/hardware/tools/g++_arm_none_eabi/bin/../lib/gcc/arm-none-eabi/4.4.1/../../../../arm-none-eabi/lib/thumb2/libc.a(lib_a-sbrkr.o)
                                                  /Applications/Arduino.app/Contents/Resources/Java/hardware/tools/g++_arm_none_eabi/bin/../lib/gcc/arm-none-eabi/4.4.1/../../../../arm-none-eabi/lib/thumb2/libc.a(lib_a-mallocr.o)
                                                  /Applications/Arduino.app/Contents/Resources/Java/hardware/tools/g++_arm_none_eabi/bin/../lib/gcc/arm-none-eabi/4.4.1/../../../../arm-none-eabi/lib/thumb2/libc.a(lib_a-freer.o)
_serialPeek                                       Builds/embeddedcomputing.a(CDC.o)
_sfixed                                           /Applications/Arduino.app/Contents/Resources/Java/hardware/arduino/sam/variants/arduino_due_x/libsam_sam3x8e_gcc_rel.a(startup_sam3xa.o)
_signal_r                                         /Applications/Arduino.app/Contents/Resources/Java/hardware/tools/g++_arm_none_eabi/bin/../lib/gcc/arm-none-eabi/4.4.1/../../../../arm-none-eabi/lib/thumb2/libc.a(lib_a-signal.o)
_srelocate                                        /Applications/Arduino.app/Contents/Resources/Java/hardware/arduino/sam/variants/arduino_due_x/libsam_sam3x8e_gcc_rel.a(startup_sam3xa.o)
_szero                                            /Applications/Arduino.app/Contents/Resources/Java/hardware/arduino/sam/variants/arduino_due_x/libsam_sam3x8e_gcc_rel.a(startup_sam3xa.o)
_usbConfiguration                                 Builds/embeddedcomputing.a(USBCore.o)
_usbInitialized                                   Builds/embeddedcomputing.a(USBCore.o)
_usbSetInterface                                  Builds/embeddedcomputing.a(USBCore.o)
_vfiprintf_r                                      /Applications/Arduino.app/Contents/Resources/Java/hardware/tools/g++_arm_none_eabi/bin/../lib/gcc/arm-none-eabi/4.4.1/../../../../arm-none-eabi/lib/thumb2/libc.a(lib_a-vfiprintf.o)
                                                  /Applications/Arduino.app/Contents/Resources/Java/hardware/tools/g++_arm_none_eabi/bin/../lib/gcc/arm-none-eabi/4.4.1/../../../../arm-none-eabi/lib/thumb2/libc.a(lib_a-iprintf.o)
                                                  /Applications/Arduino.app/Contents/Resources/Java/hardware/tools/g++_arm_none_eabi/bin/../lib/gcc/arm-none-eabi/4.4.1/../../../../arm-none-eabi/lib/thumb2/libc.a(lib_a-fiprintf.o)
_wrapup_reent                                     /Applications/Arduino.app/Contents/Resources/Java/hardware/tools/g++_arm_none_eabi/bin/../lib/gcc/arm-none-eabi/4.4.1/../../../../arm-none-eabi/lib/thumb2/libc.a(lib_a-reent.o)
_write                                            Builds/syscalls_sam3.o
                                                  /Applications/Arduino.app/Contents/Resources/Java/hardware/tools/g++_arm_none_eabi/bin/../lib/gcc/arm-none-eabi/4.4.1/../../../../arm-none-eabi/lib/thumb2/libc.a(lib_a-writer.o)
_write_r                                          /Applications/Arduino.app/Contents/Resources/Java/hardware/tools/g++_arm_none_eabi/bin/../lib/gcc/arm-none-eabi/4.4.1/../../../../arm-none-eabi/lib/thumb2/libc.a(lib_a-writer.o)
                                                  /Applications/Arduino.app/Contents/Resources/Java/hardware/tools/g++_arm_none_eabi/bin/../lib/gcc/arm-none-eabi/4.4.1/../../../../arm-none-eabi/lib/thumb2/libc.a(lib_a-stdio.o)
abort                                             /Applications/Arduino.app/Contents/Resources/Java/hardware/tools/g++_arm_none_eabi/bin/../lib/gcc/arm-none-eabi/4.4.1/../../../../arm-none-eabi/lib/thumb2/libc.a(lib_a-abort.o)
                                                  /Applications/Arduino.app/Contents/Resources/Java/hardware/tools/g++_arm_none_eabi/bin/../lib/gcc/arm-none-eabi/4.4.1/../../../../arm-none-eabi/lib/thumb2/libc.a(lib_a-assert.o)
adc_configure_power_save                          /Applications/Arduino.app/Contents/Resources/Java/hardware/arduino/sam/variants/arduino_due_x/libsam_sam3x8e_gcc_rel.a(adc.o)
adc_configure_sequence                            /Applications/Arduino.app/Contents/Resources/Java/hardware/arduino/sam/variants/arduino_due_x/libsam_sam3x8e_gcc_rel.a(adc.o)
adc_configure_timing                              /Applications/Arduino.app/Contents/Resources/Java/hardware/arduino/sam/variants/arduino_due_x/libsam_sam3x8e_gcc_rel.a(adc.o)
                                                  Builds/variant.o
adc_configure_trigger                             /Applications/Arduino.app/Contents/Resources/Java/hardware/arduino/sam/variants/arduino_due_x/libsam_sam3x8e_gcc_rel.a(adc.o)
                                                  Builds/variant.o
adc_disable_all_channel                           /Applications/Arduino.app/Contents/Resources/Java/hardware/arduino/sam/variants/arduino_due_x/libsam_sam3x8e_gcc_rel.a(adc.o)
                                                  Builds/variant.o
adc_disable_anch                                  /Applications/Arduino.app/Contents/Resources/Java/hardware/arduino/sam/variants/arduino_due_x/libsam_sam3x8e_gcc_rel.a(adc.o)
adc_disable_channel                               /Applications/Arduino.app/Contents/Resources/Java/hardware/arduino/sam/variants/arduino_due_x/libsam_sam3x8e_gcc_rel.a(adc.o)
                                                  Builds/embeddedcomputing.a(wiring_analog.o)
adc_disable_channel_differential_input            /Applications/Arduino.app/Contents/Resources/Java/hardware/arduino/sam/variants/arduino_due_x/libsam_sam3x8e_gcc_rel.a(adc.o)
adc_disable_channel_input_offset                  /Applications/Arduino.app/Contents/Resources/Java/hardware/arduino/sam/variants/arduino_due_x/libsam_sam3x8e_gcc_rel.a(adc.o)
adc_disable_interrupt                             /Applications/Arduino.app/Contents/Resources/Java/hardware/arduino/sam/variants/arduino_due_x/libsam_sam3x8e_gcc_rel.a(adc.o)
                                                  Builds/variant.o
adc_disable_tag                                   /Applications/Arduino.app/Contents/Resources/Java/hardware/arduino/sam/variants/arduino_due_x/libsam_sam3x8e_gcc_rel.a(adc.o)
adc_disable_ts                                    /Applications/Arduino.app/Contents/Resources/Java/hardware/arduino/sam/variants/arduino_due_x/libsam_sam3x8e_gcc_rel.a(adc.o)
adc_enable_all_channel                            /Applications/Arduino.app/Contents/Resources/Java/hardware/arduino/sam/variants/arduino_due_x/libsam_sam3x8e_gcc_rel.a(adc.o)
adc_enable_anch                                   /Applications/Arduino.app/Contents/Resources/Java/hardware/arduino/sam/variants/arduino_due_x/libsam_sam3x8e_gcc_rel.a(adc.o)
adc_enable_channel                                /Applications/Arduino.app/Contents/Resources/Java/hardware/arduino/sam/variants/arduino_due_x/libsam_sam3x8e_gcc_rel.a(adc.o)
                                                  Builds/embeddedcomputing.a(wiring_analog.o)
adc_enable_channel_differential_input             /Applications/Arduino.app/Contents/Resources/Java/hardware/arduino/sam/variants/arduino_due_x/libsam_sam3x8e_gcc_rel.a(adc.o)
adc_enable_channel_input_offset                   /Applications/Arduino.app/Contents/Resources/Java/hardware/arduino/sam/variants/arduino_due_x/libsam_sam3x8e_gcc_rel.a(adc.o)
adc_enable_interrupt                              /Applications/Arduino.app/Contents/Resources/Java/hardware/arduino/sam/variants/arduino_due_x/libsam_sam3x8e_gcc_rel.a(adc.o)
adc_enable_tag                                    /Applications/Arduino.app/Contents/Resources/Java/hardware/arduino/sam/variants/arduino_due_x/libsam_sam3x8e_gcc_rel.a(adc.o)
adc_enable_ts                                     /Applications/Arduino.app/Contents/Resources/Java/hardware/arduino/sam/variants/arduino_due_x/libsam_sam3x8e_gcc_rel.a(adc.o)
adc_get_actual_adc_clock                          /Applications/Arduino.app/Contents/Resources/Java/hardware/arduino/sam/variants/arduino_due_x/libsam_sam3x8e_gcc_rel.a(adc.o)
adc_get_channel_status                            /Applications/Arduino.app/Contents/Resources/Java/hardware/arduino/sam/variants/arduino_due_x/libsam_sam3x8e_gcc_rel.a(adc.o)
adc_get_channel_value                             /Applications/Arduino.app/Contents/Resources/Java/hardware/arduino/sam/variants/arduino_due_x/libsam_sam3x8e_gcc_rel.a(adc.o)
adc_get_comparison_mode                           /Applications/Arduino.app/Contents/Resources/Java/hardware/arduino/sam/variants/arduino_due_x/libsam_sam3x8e_gcc_rel.a(adc.o)
adc_get_interrupt_mask                            /Applications/Arduino.app/Contents/Resources/Java/hardware/arduino/sam/variants/arduino_due_x/libsam_sam3x8e_gcc_rel.a(adc.o)
adc_get_latest_value                              /Applications/Arduino.app/Contents/Resources/Java/hardware/arduino/sam/variants/arduino_due_x/libsam_sam3x8e_gcc_rel.a(adc.o)
                                                  Builds/embeddedcomputing.a(wiring_analog.o)
adc_get_overrun_status                            /Applications/Arduino.app/Contents/Resources/Java/hardware/arduino/sam/variants/arduino_due_x/libsam_sam3x8e_gcc_rel.a(adc.o)
adc_get_pdc_base                                  /Applications/Arduino.app/Contents/Resources/Java/hardware/arduino/sam/variants/arduino_due_x/libsam_sam3x8e_gcc_rel.a(adc.o)
adc_get_status                                    /Applications/Arduino.app/Contents/Resources/Java/hardware/arduino/sam/variants/arduino_due_x/libsam_sam3x8e_gcc_rel.a(adc.o)
                                                  Builds/embeddedcomputing.a(wiring_analog.o)
adc_get_tag                                       /Applications/Arduino.app/Contents/Resources/Java/hardware/arduino/sam/variants/arduino_due_x/libsam_sam3x8e_gcc_rel.a(adc.o)
adc_get_writeprotect_status                       /Applications/Arduino.app/Contents/Resources/Java/hardware/arduino/sam/variants/arduino_due_x/libsam_sam3x8e_gcc_rel.a(adc.o)
adc_init                                          /Applications/Arduino.app/Contents/Resources/Java/hardware/arduino/sam/variants/arduino_due_x/libsam_sam3x8e_gcc_rel.a(adc.o)
                                                  Builds/variant.o
adc_set_bias_current                              /Applications/Arduino.app/Contents/Resources/Java/hardware/arduino/sam/variants/arduino_due_x/libsam_sam3x8e_gcc_rel.a(adc.o)
adc_set_channel_input_gain                        /Applications/Arduino.app/Contents/Resources/Java/hardware/arduino/sam/variants/arduino_due_x/libsam_sam3x8e_gcc_rel.a(adc.o)
adc_set_comparison_channel                        /Applications/Arduino.app/Contents/Resources/Java/hardware/arduino/sam/variants/arduino_due_x/libsam_sam3x8e_gcc_rel.a(adc.o)
adc_set_comparison_mode                           /Applications/Arduino.app/Contents/Resources/Java/hardware/arduino/sam/variants/arduino_due_x/libsam_sam3x8e_gcc_rel.a(adc.o)
adc_set_comparison_window                         /Applications/Arduino.app/Contents/Resources/Java/hardware/arduino/sam/variants/arduino_due_x/libsam_sam3x8e_gcc_rel.a(adc.o)
adc_set_resolution                                /Applications/Arduino.app/Contents/Resources/Java/hardware/arduino/sam/variants/arduino_due_x/libsam_sam3x8e_gcc_rel.a(adc.o)
adc_set_writeprotect                              /Applications/Arduino.app/Contents/Resources/Java/hardware/arduino/sam/variants/arduino_due_x/libsam_sam3x8e_gcc_rel.a(adc.o)
adc_start                                         /Applications/Arduino.app/Contents/Resources/Java/hardware/arduino/sam/variants/arduino_due_x/libsam_sam3x8e_gcc_rel.a(adc.o)
                                                  Builds/embeddedcomputing.a(wiring_analog.o)
adc_start_sequencer                               /Applications/Arduino.app/Contents/Resources/Java/hardware/arduino/sam/variants/arduino_due_x/libsam_sam3x8e_gcc_rel.a(adc.o)
adc_stop                                          /Applications/Arduino.app/Contents/Resources/Java/hardware/arduino/sam/variants/arduino_due_x/libsam_sam3x8e_gcc_rel.a(adc.o)
adc_stop_sequencer                                /Applications/Arduino.app/Contents/Resources/Java/hardware/arduino/sam/variants/arduino_due_x/libsam_sam3x8e_gcc_rel.a(adc.o)
analogOutputInit                                  Builds/embeddedcomputing.a(wiring_analog.o)
                                                  Builds/variant.o
analogRead                                        Builds/embeddedcomputing.a(wiring_analog.o)
analogReadResolution                              Builds/embeddedcomputing.a(wiring_analog.o)
analogReference                                   Builds/embeddedcomputing.a(wiring_analog.o)
analogWrite                                       Builds/embeddedcomputing.a(wiring_analog.o)
analogWriteResolution                             Builds/embeddedcomputing.a(wiring_analog.o)
analog_reference                                  Builds/embeddedcomputing.a(wiring_analog.o)
attachInterrupt                                   Builds/embeddedcomputing.a(WInterrupts.o)
banzai                                            Builds/embeddedcomputing.a(Reset.o)
cancelReset                                       Builds/embeddedcomputing.a(Reset.o)
                                                  Builds/embeddedcomputing.a(CDC.o)
cdc_rx_buffer                                     Builds/embeddedcomputing.a(CDC.o)
cleanup_glue                                      /Applications/Arduino.app/Contents/Resources/Java/hardware/tools/g++_arm_none_eabi/bin/../lib/gcc/arm-none-eabi/4.4.1/../../../../arm-none-eabi/lib/thumb2/libc.a(lib_a-reent.o)
dacc_disable_channel                              /Applications/Arduino.app/Contents/Resources/Java/hardware/arduino/sam/variants/arduino_due_x/libsam_sam3x8e_gcc_rel.a(dacc.o)
dacc_disable_interrupt                            /Applications/Arduino.app/Contents/Resources/Java/hardware/arduino/sam/variants/arduino_due_x/libsam_sam3x8e_gcc_rel.a(dacc.o)
dacc_disable_trigger                              /Applications/Arduino.app/Contents/Resources/Java/hardware/arduino/sam/variants/arduino_due_x/libsam_sam3x8e_gcc_rel.a(dacc.o)
dacc_enable_channel                               /Applications/Arduino.app/Contents/Resources/Java/hardware/arduino/sam/variants/arduino_due_x/libsam_sam3x8e_gcc_rel.a(dacc.o)
                                                  Builds/embeddedcomputing.a(wiring_analog.o)
dacc_enable_flexible_selection                    /Applications/Arduino.app/Contents/Resources/Java/hardware/arduino/sam/variants/arduino_due_x/libsam_sam3x8e_gcc_rel.a(dacc.o)
dacc_enable_interrupt                             /Applications/Arduino.app/Contents/Resources/Java/hardware/arduino/sam/variants/arduino_due_x/libsam_sam3x8e_gcc_rel.a(dacc.o)
dacc_get_analog_control                           /Applications/Arduino.app/Contents/Resources/Java/hardware/arduino/sam/variants/arduino_due_x/libsam_sam3x8e_gcc_rel.a(dacc.o)
dacc_get_channel_status                           /Applications/Arduino.app/Contents/Resources/Java/hardware/arduino/sam/variants/arduino_due_x/libsam_sam3x8e_gcc_rel.a(dacc.o)
                                                  Builds/embeddedcomputing.a(wiring_analog.o)
dacc_get_interrupt_mask                           /Applications/Arduino.app/Contents/Resources/Java/hardware/arduino/sam/variants/arduino_due_x/libsam_sam3x8e_gcc_rel.a(dacc.o)
dacc_get_interrupt_status                         /Applications/Arduino.app/Contents/Resources/Java/hardware/arduino/sam/variants/arduino_due_x/libsam_sam3x8e_gcc_rel.a(dacc.o)
                                                  Builds/embeddedcomputing.a(wiring_analog.o)
dacc_get_pdc_base                                 /Applications/Arduino.app/Contents/Resources/Java/hardware/arduino/sam/variants/arduino_due_x/libsam_sam3x8e_gcc_rel.a(dacc.o)
dacc_get_writeprotect_status                      /Applications/Arduino.app/Contents/Resources/Java/hardware/arduino/sam/variants/arduino_due_x/libsam_sam3x8e_gcc_rel.a(dacc.o)
dacc_reset                                        /Applications/Arduino.app/Contents/Resources/Java/hardware/arduino/sam/variants/arduino_due_x/libsam_sam3x8e_gcc_rel.a(dacc.o)
                                                  Builds/embeddedcomputing.a(wiring_analog.o)
dacc_set_analog_control                           /Applications/Arduino.app/Contents/Resources/Java/hardware/arduino/sam/variants/arduino_due_x/libsam_sam3x8e_gcc_rel.a(dacc.o)
                                                  Builds/embeddedcomputing.a(wiring_analog.o)
dacc_set_channel_selection                        /Applications/Arduino.app/Contents/Resources/Java/hardware/arduino/sam/variants/arduino_due_x/libsam_sam3x8e_gcc_rel.a(dacc.o)
                                                  Builds/embeddedcomputing.a(wiring_analog.o)
dacc_set_power_save                               /Applications/Arduino.app/Contents/Resources/Java/hardware/arduino/sam/variants/arduino_due_x/libsam_sam3x8e_gcc_rel.a(dacc.o)
                                                  Builds/embeddedcomputing.a(wiring_analog.o)
dacc_set_timing                                   /Applications/Arduino.app/Contents/Resources/Java/hardware/arduino/sam/variants/arduino_due_x/libsam_sam3x8e_gcc_rel.a(dacc.o)
                                                  Builds/embeddedcomputing.a(wiring_analog.o)
dacc_set_transfer_mode                            /Applications/Arduino.app/Contents/Resources/Java/hardware/arduino/sam/variants/arduino_due_x/libsam_sam3x8e_gcc_rel.a(dacc.o)
                                                  Builds/embeddedcomputing.a(wiring_analog.o)
dacc_set_trigger                                  /Applications/Arduino.app/Contents/Resources/Java/hardware/arduino/sam/variants/arduino_due_x/libsam_sam3x8e_gcc_rel.a(dacc.o)
dacc_set_writeprotect                             /Applications/Arduino.app/Contents/Resources/Java/hardware/arduino/sam/variants/arduino_due_x/libsam_sam3x8e_gcc_rel.a(dacc.o)
dacc_write_conversion_data                        /Applications/Arduino.app/Contents/Resources/Java/hardware/arduino/sam/variants/arduino_due_x/libsam_sam3x8e_gcc_rel.a(dacc.o)
                                                  Builds/embeddedcomputing.a(wiring_analog.o)
delay                                             Builds/embeddedcomputing.a(wiring.o)
                                                  Builds/embeddedcomputing.a(CDC.o)
                                                  Builds/embeddedcomputing.a(USBCore.o)
                                                  Builds/main.o
detachInterrupt                                   Builds/embeddedcomputing.a(WInterrupts.o)
digitalRead                                       Builds/embeddedcomputing.a(wiring_digital.o)
digitalWrite                                      Builds/embeddedcomputing.a(wiring_digital.o)
                                                  Builds/embeddedcomputing.a(wiring_analog.o)
                                                  Builds/variant.o
errno                                             /Applications/Arduino.app/Contents/Resources/Java/hardware/tools/g++_arm_none_eabi/bin/../lib/gcc/arm-none-eabi/4.4.1/../../../../arm-none-eabi/lib/thumb2/libc.a(lib_a-reent.o)
                                                  /Applications/Arduino.app/Contents/Resources/Java/hardware/tools/g++_arm_none_eabi/bin/../lib/gcc/arm-none-eabi/4.4.1/../../../../arm-none-eabi/lib/thumb2/libc.a(lib_a-readr.o)
                                                  /Applications/Arduino.app/Contents/Resources/Java/hardware/tools/g++_arm_none_eabi/bin/../lib/gcc/arm-none-eabi/4.4.1/../../../../arm-none-eabi/lib/thumb2/libc.a(lib_a-lseekr.o)
                                                  /Applications/Arduino.app/Contents/Resources/Java/hardware/tools/g++_arm_none_eabi/bin/../lib/gcc/arm-none-eabi/4.4.1/../../../../arm-none-eabi/lib/thumb2/libc.a(lib_a-isattyr.o)
                                                  /Applications/Arduino.app/Contents/Resources/Java/hardware/tools/g++_arm_none_eabi/bin/../lib/gcc/arm-none-eabi/4.4.1/../../../../arm-none-eabi/lib/thumb2/libc.a(lib_a-fstatr.o)
                                                  /Applications/Arduino.app/Contents/Resources/Java/hardware/tools/g++_arm_none_eabi/bin/../lib/gcc/arm-none-eabi/4.4.1/../../../../arm-none-eabi/lib/thumb2/libc.a(lib_a-closer.o)
                                                  /Applications/Arduino.app/Contents/Resources/Java/hardware/tools/g++_arm_none_eabi/bin/../lib/gcc/arm-none-eabi/4.4.1/../../../../arm-none-eabi/lib/thumb2/libc.a(lib_a-writer.o)
                                                  /Applications/Arduino.app/Contents/Resources/Java/hardware/tools/g++_arm_none_eabi/bin/../lib/gcc/arm-none-eabi/4.4.1/../../../../arm-none-eabi/lib/thumb2/libc.a(lib_a-signalr.o)
                                                  /Applications/Arduino.app/Contents/Resources/Java/hardware/tools/g++_arm_none_eabi/bin/../lib/gcc/arm-none-eabi/4.4.1/../../../../arm-none-eabi/lib/thumb2/libc.a(lib_a-sbrkr.o)
exception_table                                   /Applications/Arduino.app/Contents/Resources/Java/hardware/arduino/sam/variants/arduino_due_x/libsam_sam3x8e_gcc_rel.a(startup_sam3xa.o)
fclose                                            /Applications/Arduino.app/Contents/Resources/Java/hardware/tools/g++_arm_none_eabi/bin/../lib/gcc/arm-none-eabi/4.4.1/../../../../arm-none-eabi/lib/thumb2/libc.a(lib_a-fclose.o)
                                                  /Applications/Arduino.app/Contents/Resources/Java/hardware/tools/g++_arm_none_eabi/bin/../lib/gcc/arm-none-eabi/4.4.1/../../../../arm-none-eabi/lib/thumb2/libc.a(lib_a-findfp.o)
fflush                                            /Applications/Arduino.app/Contents/Resources/Java/hardware/tools/g++_arm_none_eabi/bin/../lib/gcc/arm-none-eabi/4.4.1/../../../../arm-none-eabi/lib/thumb2/libc.a(lib_a-fflush.o)
fiprintf                                          /Applications/Arduino.app/Contents/Resources/Java/hardware/tools/g++_arm_none_eabi/bin/../lib/gcc/arm-none-eabi/4.4.1/../../../../arm-none-eabi/lib/thumb2/libc.a(lib_a-fiprintf.o)
                                                  /Applications/Arduino.app/Contents/Resources/Java/hardware/tools/g++_arm_none_eabi/bin/../lib/gcc/arm-none-eabi/4.4.1/../../../../arm-none-eabi/lib/thumb2/libc.a(lib_a-assert.o)
g_APinDescription                                 Builds/variant.o
                                                  Builds/embeddedcomputing.a(wiring_digital.o)
                                                  Builds/embeddedcomputing.a(wiring_analog.o)
                                                  Builds/embeddedcomputing.a(WInterrupts.o)
g_interrupt_enabled                               /Applications/Arduino.app/Contents/Resources/Java/hardware/arduino/sam/variants/arduino_due_x/libsam_sam3x8e_gcc_rel.a(interrupt_sam_nvic.o)
                                                  /Applications/Arduino.app/Contents/Resources/Java/hardware/arduino/sam/variants/arduino_due_x/libsam_sam3x8e_gcc_rel.a(uotghs_device.o)
                                                  Builds/embeddedcomputing.a(USBCore.o)
gpf_isr                                           /Applications/Arduino.app/Contents/Resources/Java/hardware/arduino/sam/variants/arduino_due_x/libsam_sam3x8e_gcc_rel.a(uotghs.o)
                                                  /Applications/Arduino.app/Contents/Resources/Java/hardware/arduino/sam/variants/arduino_due_x/libsam_sam3x8e_gcc_rel.a(uotghs_device.o)
init                                              Builds/variant.o
                                                  Builds/main.o
initiateReset                                     Builds/embeddedcomputing.a(Reset.o)
                                                  Builds/embeddedcomputing.a(CDC.o)
iprintf                                           /Applications/Arduino.app/Contents/Resources/Java/hardware/tools/g++_arm_none_eabi/bin/../lib/gcc/arm-none-eabi/4.4.1/../../../../arm-none-eabi/lib/thumb2/libc.a(lib_a-iprintf.o)
                                                  Builds/syscalls_sam3.o
link                                              Builds/syscalls_sam3.o
loop                                              Builds/main.o
main                                              Builds/main.o
                                                  /Applications/Arduino.app/Contents/Resources/Java/hardware/arduino/sam/variants/arduino_due_x/libsam_sam3x8e_gcc_rel.a(startup_sam3xa.o)
memchr                                            /Applications/Arduino.app/Contents/Resources/Java/hardware/tools/g++_arm_none_eabi/bin/../lib/gcc/arm-none-eabi/4.4.1/../../../../arm-none-eabi/lib/thumb2/libc.a(lib_a-memchr.o)
                                                  /Applications/Arduino.app/Contents/Resources/Java/hardware/tools/g++_arm_none_eabi/bin/../lib/gcc/arm-none-eabi/4.4.1/../../../../arm-none-eabi/lib/thumb2/libc.a(lib_a-fvwrite.o)
                                                  /Applications/Arduino.app/Contents/Resources/Java/hardware/tools/g++_arm_none_eabi/bin/../lib/gcc/arm-none-eabi/4.4.1/../../../../arm-none-eabi/lib/thumb2/libc.a(lib_a-vfiprintf.o)
memcpy                                            /Applications/Arduino.app/Contents/Resources/Java/hardware/tools/g++_arm_none_eabi/bin/../lib/gcc/arm-none-eabi/4.4.1/../../../../arm-none-eabi/lib/thumb2/libc.a(lib_a-memcpy.o)
                                                  /Applications/Arduino.app/Contents/Resources/Java/hardware/tools/g++_arm_none_eabi/bin/../lib/gcc/arm-none-eabi/4.4.1/../../../../arm-none-eabi/lib/thumb2/libc.a(lib_a-fvwrite.o)
memmove                                           /Applications/Arduino.app/Contents/Resources/Java/hardware/tools/g++_arm_none_eabi/bin/../lib/gcc/arm-none-eabi/4.4.1/../../../../arm-none-eabi/lib/thumb2/libc.a(lib_a-memmove.o)
                                                  /Applications/Arduino.app/Contents/Resources/Java/hardware/tools/g++_arm_none_eabi/bin/../lib/gcc/arm-none-eabi/4.4.1/../../../../arm-none-eabi/lib/thumb2/libc.a(lib_a-reallocr.o)
                                                  /Applications/Arduino.app/Contents/Resources/Java/hardware/tools/g++_arm_none_eabi/bin/../lib/gcc/arm-none-eabi/4.4.1/../../../../arm-none-eabi/lib/thumb2/libc.a(lib_a-fvwrite.o)
memset                                            /Applications/Arduino.app/Contents/Resources/Java/hardware/tools/g++_arm_none_eabi/bin/../lib/gcc/arm-none-eabi/4.4.1/../../../../arm-none-eabi/lib/thumb2/libc.a(lib_a-memset.o)
                                                  /Applications/Arduino.app/Contents/Resources/Java/hardware/tools/g++_arm_none_eabi/bin/../lib/gcc/arm-none-eabi/4.4.1/../../../../arm-none-eabi/lib/thumb2/libc.a(lib_a-findfp.o)
                                                  Builds/embeddedcomputing.a(USBCore.o)
                                                  Builds/embeddedcomputing.a(RingBuffer.o)
micros                                            Builds/embeddedcomputing.a(wiring.o)
millis                                            Builds/embeddedcomputing.a(wiring.o)
                                                  Builds/embeddedcomputing.a(CDC.o)
pendSVHook                                        Builds/embeddedcomputing.a(hooks.o)
                                                  Builds/embeddedcomputing.a(cortex_handlers.o)
pinMode                                           Builds/embeddedcomputing.a(wiring_digital.o)
                                                  Builds/embeddedcomputing.a(wiring_analog.o)
pmc_clr_fast_startup_input                        /Applications/Arduino.app/Contents/Resources/Java/hardware/arduino/sam/variants/arduino_due_x/libsam_sam3x8e_gcc_rel.a(pmc.o)
pmc_disable_all_pck                               /Applications/Arduino.app/Contents/Resources/Java/hardware/arduino/sam/variants/arduino_due_x/libsam_sam3x8e_gcc_rel.a(pmc.o)
pmc_disable_all_periph_clk                        /Applications/Arduino.app/Contents/Resources/Java/hardware/arduino/sam/variants/arduino_due_x/libsam_sam3x8e_gcc_rel.a(pmc.o)
pmc_disable_interrupt                             /Applications/Arduino.app/Contents/Resources/Java/hardware/arduino/sam/variants/arduino_due_x/libsam_sam3x8e_gcc_rel.a(pmc.o)
pmc_disable_pck                                   /Applications/Arduino.app/Contents/Resources/Java/hardware/arduino/sam/variants/arduino_due_x/libsam_sam3x8e_gcc_rel.a(pmc.o)
pmc_disable_periph_clk                            /Applications/Arduino.app/Contents/Resources/Java/hardware/arduino/sam/variants/arduino_due_x/libsam_sam3x8e_gcc_rel.a(pmc.o)
                                                  Builds/embeddedcomputing.a(USARTClass.o)
                                                  Builds/embeddedcomputing.a(UARTClass.o)
                                                  Builds/embeddedcomputing.a(wiring_digital.o)
pmc_disable_pllack                                /Applications/Arduino.app/Contents/Resources/Java/hardware/arduino/sam/variants/arduino_due_x/libsam_sam3x8e_gcc_rel.a(pmc.o)
pmc_disable_udpck                                 /Applications/Arduino.app/Contents/Resources/Java/hardware/arduino/sam/variants/arduino_due_x/libsam_sam3x8e_gcc_rel.a(pmc.o)
pmc_disable_upll_clock                            /Applications/Arduino.app/Contents/Resources/Java/hardware/arduino/sam/variants/arduino_due_x/libsam_sam3x8e_gcc_rel.a(pmc.o)
pmc_enable_all_pck                                /Applications/Arduino.app/Contents/Resources/Java/hardware/arduino/sam/variants/arduino_due_x/libsam_sam3x8e_gcc_rel.a(pmc.o)
pmc_enable_all_periph_clk                         /Applications/Arduino.app/Contents/Resources/Java/hardware/arduino/sam/variants/arduino_due_x/libsam_sam3x8e_gcc_rel.a(pmc.o)
pmc_enable_backupmode                             /Applications/Arduino.app/Contents/Resources/Java/hardware/arduino/sam/variants/arduino_due_x/libsam_sam3x8e_gcc_rel.a(pmc.o)
pmc_enable_interrupt                              /Applications/Arduino.app/Contents/Resources/Java/hardware/arduino/sam/variants/arduino_due_x/libsam_sam3x8e_gcc_rel.a(pmc.o)
pmc_enable_pck                                    /Applications/Arduino.app/Contents/Resources/Java/hardware/arduino/sam/variants/arduino_due_x/libsam_sam3x8e_gcc_rel.a(pmc.o)
pmc_enable_periph_clk                             /Applications/Arduino.app/Contents/Resources/Java/hardware/arduino/sam/variants/arduino_due_x/libsam_sam3x8e_gcc_rel.a(pmc.o)
                                                  /Applications/Arduino.app/Contents/Resources/Java/hardware/arduino/sam/variants/arduino_due_x/libsam_sam3x8e_gcc_rel.a(uotghs_device.o)
                                                  Builds/embeddedcomputing.a(USARTClass.o)
                                                  Builds/embeddedcomputing.a(UARTClass.o)
                                                  Builds/embeddedcomputing.a(wiring_digital.o)
                                                  Builds/embeddedcomputing.a(wiring_analog.o)
                                                  Builds/embeddedcomputing.a(WInterrupts.o)
                                                  Builds/variant.o
pmc_enable_pllack                                 /Applications/Arduino.app/Contents/Resources/Java/hardware/arduino/sam/variants/arduino_due_x/libsam_sam3x8e_gcc_rel.a(pmc.o)
pmc_enable_sleepmode                              /Applications/Arduino.app/Contents/Resources/Java/hardware/arduino/sam/variants/arduino_due_x/libsam_sam3x8e_gcc_rel.a(pmc.o)
pmc_enable_udpck                                  /Applications/Arduino.app/Contents/Resources/Java/hardware/arduino/sam/variants/arduino_due_x/libsam_sam3x8e_gcc_rel.a(pmc.o)
                                                  /Applications/Arduino.app/Contents/Resources/Java/hardware/arduino/sam/variants/arduino_due_x/libsam_sam3x8e_gcc_rel.a(uotghs_device.o)
pmc_enable_upll_clock                             /Applications/Arduino.app/Contents/Resources/Java/hardware/arduino/sam/variants/arduino_due_x/libsam_sam3x8e_gcc_rel.a(pmc.o)
                                                  /Applications/Arduino.app/Contents/Resources/Java/hardware/arduino/sam/variants/arduino_due_x/libsam_sam3x8e_gcc_rel.a(uotghs_device.o)
pmc_enable_waitmode                               /Applications/Arduino.app/Contents/Resources/Java/hardware/arduino/sam/variants/arduino_due_x/libsam_sam3x8e_gcc_rel.a(pmc.o)
pmc_get_interrupt_mask                            /Applications/Arduino.app/Contents/Resources/Java/hardware/arduino/sam/variants/arduino_due_x/libsam_sam3x8e_gcc_rel.a(pmc.o)
pmc_get_status                                    /Applications/Arduino.app/Contents/Resources/Java/hardware/arduino/sam/variants/arduino_due_x/libsam_sam3x8e_gcc_rel.a(pmc.o)
pmc_get_writeprotect_status                       /Applications/Arduino.app/Contents/Resources/Java/hardware/arduino/sam/variants/arduino_due_x/libsam_sam3x8e_gcc_rel.a(pmc.o)
pmc_is_locked_pllack                              /Applications/Arduino.app/Contents/Resources/Java/hardware/arduino/sam/variants/arduino_due_x/libsam_sam3x8e_gcc_rel.a(pmc.o)
pmc_is_locked_upll                                /Applications/Arduino.app/Contents/Resources/Java/hardware/arduino/sam/variants/arduino_due_x/libsam_sam3x8e_gcc_rel.a(pmc.o)
pmc_is_pck_enabled                                /Applications/Arduino.app/Contents/Resources/Java/hardware/arduino/sam/variants/arduino_due_x/libsam_sam3x8e_gcc_rel.a(pmc.o)
pmc_is_periph_clk_enabled                         /Applications/Arduino.app/Contents/Resources/Java/hardware/arduino/sam/variants/arduino_due_x/libsam_sam3x8e_gcc_rel.a(pmc.o)
pmc_mck_set_prescaler                             /Applications/Arduino.app/Contents/Resources/Java/hardware/arduino/sam/variants/arduino_due_x/libsam_sam3x8e_gcc_rel.a(pmc.o)
pmc_mck_set_source                                /Applications/Arduino.app/Contents/Resources/Java/hardware/arduino/sam/variants/arduino_due_x/libsam_sam3x8e_gcc_rel.a(pmc.o)
pmc_osc_disable_fastrc                            /Applications/Arduino.app/Contents/Resources/Java/hardware/arduino/sam/variants/arduino_due_x/libsam_sam3x8e_gcc_rel.a(pmc.o)
pmc_osc_disable_xtal                              /Applications/Arduino.app/Contents/Resources/Java/hardware/arduino/sam/variants/arduino_due_x/libsam_sam3x8e_gcc_rel.a(pmc.o)
pmc_osc_enable_fastrc                             /Applications/Arduino.app/Contents/Resources/Java/hardware/arduino/sam/variants/arduino_due_x/libsam_sam3x8e_gcc_rel.a(pmc.o)
pmc_osc_is_ready_32kxtal                          /Applications/Arduino.app/Contents/Resources/Java/hardware/arduino/sam/variants/arduino_due_x/libsam_sam3x8e_gcc_rel.a(pmc.o)
pmc_osc_is_ready_mainck                           /Applications/Arduino.app/Contents/Resources/Java/hardware/arduino/sam/variants/arduino_due_x/libsam_sam3x8e_gcc_rel.a(pmc.o)
pmc_pck_set_prescaler                             /Applications/Arduino.app/Contents/Resources/Java/hardware/arduino/sam/variants/arduino_due_x/libsam_sam3x8e_gcc_rel.a(pmc.o)
pmc_pck_set_source                                /Applications/Arduino.app/Contents/Resources/Java/hardware/arduino/sam/variants/arduino_due_x/libsam_sam3x8e_gcc_rel.a(pmc.o)
pmc_set_fast_startup_input                        /Applications/Arduino.app/Contents/Resources/Java/hardware/arduino/sam/variants/arduino_due_x/libsam_sam3x8e_gcc_rel.a(pmc.o)
pmc_set_writeprotect                              /Applications/Arduino.app/Contents/Resources/Java/hardware/arduino/sam/variants/arduino_due_x/libsam_sam3x8e_gcc_rel.a(pmc.o)
pmc_switch_mainck_to_fastrc                       /Applications/Arduino.app/Contents/Resources/Java/hardware/arduino/sam/variants/arduino_due_x/libsam_sam3x8e_gcc_rel.a(pmc.o)
pmc_switch_mainck_to_xtal                         /Applications/Arduino.app/Contents/Resources/Java/hardware/arduino/sam/variants/arduino_due_x/libsam_sam3x8e_gcc_rel.a(pmc.o)
pmc_switch_mck_to_mainck                          /Applications/Arduino.app/Contents/Resources/Java/hardware/arduino/sam/variants/arduino_due_x/libsam_sam3x8e_gcc_rel.a(pmc.o)
pmc_switch_mck_to_pllack                          /Applications/Arduino.app/Contents/Resources/Java/hardware/arduino/sam/variants/arduino_due_x/libsam_sam3x8e_gcc_rel.a(pmc.o)
pmc_switch_mck_to_sclk                            /Applications/Arduino.app/Contents/Resources/Java/hardware/arduino/sam/variants/arduino_due_x/libsam_sam3x8e_gcc_rel.a(pmc.o)
pmc_switch_mck_to_upllck                          /Applications/Arduino.app/Contents/Resources/Java/hardware/arduino/sam/variants/arduino_due_x/libsam_sam3x8e_gcc_rel.a(pmc.o)
pmc_switch_pck_to_mainck                          /Applications/Arduino.app/Contents/Resources/Java/hardware/arduino/sam/variants/arduino_due_x/libsam_sam3x8e_gcc_rel.a(pmc.o)
pmc_switch_pck_to_pllack                          /Applications/Arduino.app/Contents/Resources/Java/hardware/arduino/sam/variants/arduino_due_x/libsam_sam3x8e_gcc_rel.a(pmc.o)
pmc_switch_pck_to_sclk                            /Applications/Arduino.app/Contents/Resources/Java/hardware/arduino/sam/variants/arduino_due_x/libsam_sam3x8e_gcc_rel.a(pmc.o)
pmc_switch_pck_to_upllck                          /Applications/Arduino.app/Contents/Resources/Java/hardware/arduino/sam/variants/arduino_due_x/libsam_sam3x8e_gcc_rel.a(pmc.o)
pmc_switch_sclk_to_32kxtal                        /Applications/Arduino.app/Contents/Resources/Java/hardware/arduino/sam/variants/arduino_due_x/libsam_sam3x8e_gcc_rel.a(pmc.o)
pmc_switch_udpck_to_pllack                        /Applications/Arduino.app/Contents/Resources/Java/hardware/arduino/sam/variants/arduino_due_x/libsam_sam3x8e_gcc_rel.a(pmc.o)
pmc_switch_udpck_to_upllck                        /Applications/Arduino.app/Contents/Resources/Java/hardware/arduino/sam/variants/arduino_due_x/libsam_sam3x8e_gcc_rel.a(pmc.o)
                                                  /Applications/Arduino.app/Contents/Resources/Java/hardware/arduino/sam/variants/arduino_due_x/libsam_sam3x8e_gcc_rel.a(uotghs_device.o)
raise                                             /Applications/Arduino.app/Contents/Resources/Java/hardware/tools/g++_arm_none_eabi/bin/../lib/gcc/arm-none-eabi/4.4.1/../../../../arm-none-eabi/lib/thumb2/libc.a(lib_a-signal.o)
                                                  /Applications/Arduino.app/Contents/Resources/Java/hardware/tools/g++_arm_none_eabi/bin/../lib/gcc/arm-none-eabi/4.4.1/../../../../arm-none-eabi/lib/thumb2/libc.a(lib_a-abort.o)
rx_buffer1                                        Builds/variant.o
rx_buffer2                                        Builds/variant.o
rx_buffer3                                        Builds/variant.o
rx_buffer4                                        Builds/variant.o
serialEvent()                                     Builds/variant.o
serialEvent1()                                    Builds/variant.o
serialEvent2()                                    Builds/variant.o
serialEvent3()                                    Builds/variant.o
serialEventRun()                                  Builds/variant.o
                                                  Builds/main.o
setup                                             Builds/main.o
signal                                            /Applications/Arduino.app/Contents/Resources/Java/hardware/tools/g++_arm_none_eabi/bin/../lib/gcc/arm-none-eabi/4.4.1/../../../../arm-none-eabi/lib/thumb2/libc.a(lib_a-signal.o)
strlen                                            /Applications/Arduino.app/Contents/Resources/Java/hardware/tools/g++_arm_none_eabi/bin/../lib/gcc/arm-none-eabi/4.4.1/../../../../arm-none-eabi/lib/thumb2/libc.a(lib_a-strlen.o)
                                                  /Applications/Arduino.app/Contents/Resources/Java/hardware/tools/g++_arm_none_eabi/bin/../lib/gcc/arm-none-eabi/4.4.1/../../../../arm-none-eabi/lib/thumb2/libc.a(lib_a-vfiprintf.o)
                                                  Builds/embeddedcomputing.a(Print.o)
svcHook                                           Builds/embeddedcomputing.a(hooks.o)
                                                  Builds/embeddedcomputing.a(cortex_handlers.o)
sysTickHook                                       Builds/embeddedcomputing.a(hooks.o)
                                                  Builds/embeddedcomputing.a(cortex_handlers.o)
system_init_flash                                 /Applications/Arduino.app/Contents/Resources/Java/hardware/arduino/sam/variants/arduino_due_x/libsam_sam3x8e_gcc_rel.a(system_sam3xa.o)
tickReset                                         Builds/embeddedcomputing.a(Reset.o)
                                                  Builds/embeddedcomputing.a(cortex_handlers.o)
vfiprintf                                         /Applications/Arduino.app/Contents/Resources/Java/hardware/tools/g++_arm_none_eabi/bin/../lib/gcc/arm-none-eabi/4.4.1/../../../../arm-none-eabi/lib/thumb2/libc.a(lib_a-vfiprintf.o)
vtable for Keyboard_                              Builds/embeddedcomputing.a(HID.o)
vtable for Print                                  Builds/embeddedcomputing.a(Print.o)
vtable for Serial_                                Builds/embeddedcomputing.a(CDC.o)
vtable for Stream                                 Builds/embeddedcomputing.a(UARTClass.o)
                                                  Builds/embeddedcomputing.a(CDC.o)
                                                  Builds/embeddedcomputing.a(USARTClass.o)
vtable for UARTClass                              Builds/embeddedcomputing.a(UARTClass.o)
vtable for USARTClass                             Builds/embeddedcomputing.a(USARTClass.o)
yield                                             Builds/embeddedcomputing.a(hooks.o)
                                                  Builds/embeddedcomputing.a(wiring.o)
